
program.bin:     ファイル形式 elf32-bigmips


セクション .text の逆アセンブル:

00000000 <__start__>:
       0:	3c1d0000 	lui	sp,0x0
       4:	37bdff00 	ori	sp,sp,0xff00
       8:	241c0000 	li	gp,0
       c:	3c1a0200 	lui	k0,0x200
      10:	375a0101 	ori	k0,k0,0x101
      14:	409a6000 	mtc0	k0,c0_sr
      18:	00000000 	nop
      1c:	00000000 	nop

00000020 <__reset__>:
      20:	27bdfff0 	addiu	sp,sp,-16
      24:	afbe000c 	sw	s8,12(sp)
      28:	03a0f025 	move	s8,sp
      2c:	3c020000 	lui	v0,0x0
      30:	244232b0 	addiu	v0,v0,12976
      34:	afc20000 	sw	v0,0(s8)
      38:	3c020000 	lui	v0,0x0
      3c:	24421a98 	addiu	v0,v0,6808
      40:	1000000c 	b	74 <__reset__+0x54>
      44:	afc20004 	sw	v0,4(s8)
      48:	8fc30000 	lw	v1,0(s8)
      4c:	00000000 	nop
      50:	24620004 	addiu	v0,v1,4
      54:	afc20000 	sw	v0,0(s8)
      58:	8fc20004 	lw	v0,4(s8)
      5c:	00000000 	nop
      60:	24440004 	addiu	a0,v0,4
      64:	afc40004 	sw	a0,4(s8)
      68:	8c630000 	lw	v1,0(v1)
      6c:	00000000 	nop
      70:	ac430000 	sw	v1,0(v0)
      74:	8fc30004 	lw	v1,4(s8)
      78:	3c020000 	lui	v0,0x0
      7c:	24421a9c 	addiu	v0,v0,6812
      80:	0062102b 	sltu	v0,v1,v0
      84:	1440fff0 	bnez	v0,48 <__reset__+0x28>
      88:	00000000 	nop
      8c:	3c020000 	lui	v0,0x0
      90:	24421a9c 	addiu	v0,v0,6812
      94:	10000008 	b	b8 <__reset__+0x98>
      98:	afc20004 	sw	v0,4(s8)
      9c:	8fc20004 	lw	v0,4(s8)
      a0:	00000000 	nop
      a4:	ac400000 	sw	zero,0(v0)
      a8:	8fc20004 	lw	v0,4(s8)
      ac:	00000000 	nop
      b0:	24420004 	addiu	v0,v0,4
      b4:	afc20004 	sw	v0,4(s8)
      b8:	8fc30004 	lw	v1,4(s8)
      bc:	3c020000 	lui	v0,0x0
      c0:	24421ab0 	addiu	v0,v0,6832
      c4:	0062102b 	sltu	v0,v1,v0
      c8:	1440fff4 	bnez	v0,9c <__reset__+0x7c>
      cc:	00000000 	nop
      d0:	08000185 	j	614 <main>
      d4:	00000000 	nop
      d8:	00000000 	nop
      dc:	03c0e825 	move	sp,s8
      e0:	8fbe000c 	lw	s8,12(sp)
      e4:	03e00008 	jr	ra
      e8:	27bd0010 	addiu	sp,sp,16
      ec:	00000000 	nop
      f0:	00000000 	nop
      f4:	00000000 	nop
      f8:	00000000 	nop
      fc:	00000000 	nop

00000100 <__vector__>:
     100:	03a0d025 	move	k0,sp
     104:	3c1d0000 	lui	sp,0x0
     108:	37bdc000 	ori	sp,sp,0xc000
     10c:	27bdff80 	addiu	sp,sp,-128
     110:	afba007c 	sw	k0,124(sp)
     114:	afa10078 	sw	at,120(sp)
     118:	afa20074 	sw	v0,116(sp)
     11c:	afa30070 	sw	v1,112(sp)
     120:	afa4006c 	sw	a0,108(sp)
     124:	afa50068 	sw	a1,104(sp)
     128:	afa60064 	sw	a2,100(sp)
     12c:	afa70060 	sw	a3,96(sp)
     130:	afa8005c 	sw	t0,92(sp)
     134:	afa90058 	sw	t1,88(sp)
     138:	afaa0054 	sw	t2,84(sp)
     13c:	afab0050 	sw	t3,80(sp)
     140:	afac004c 	sw	t4,76(sp)
     144:	afad0048 	sw	t5,72(sp)
     148:	afae0044 	sw	t6,68(sp)
     14c:	afaf0040 	sw	t7,64(sp)
     150:	afb0003c 	sw	s0,60(sp)
     154:	afb10038 	sw	s1,56(sp)
     158:	afb20034 	sw	s2,52(sp)
     15c:	afb30030 	sw	s3,48(sp)
     160:	afb4002c 	sw	s4,44(sp)
     164:	afb50028 	sw	s5,40(sp)
     168:	afb60024 	sw	s6,36(sp)
     16c:	afb70020 	sw	s7,32(sp)
     170:	afb8001c 	sw	t8,28(sp)
     174:	afb90018 	sw	t9,24(sp)
     178:	afbc0014 	sw	gp,20(sp)
     17c:	afbe0010 	sw	s8,16(sp)
     180:	afbf000c 	sw	ra,12(sp)
     184:	0c0000ad 	jal	2b4 <interrupt_handler>
     188:	00000000 	nop
     18c:	8fbf000c 	lw	ra,12(sp)
     190:	8fbe0010 	lw	s8,16(sp)
     194:	8fbc0014 	lw	gp,20(sp)
     198:	8fb90018 	lw	t9,24(sp)
     19c:	8fb8001c 	lw	t8,28(sp)
     1a0:	8fb70020 	lw	s7,32(sp)
     1a4:	8fb60024 	lw	s6,36(sp)
     1a8:	8fb50028 	lw	s5,40(sp)
     1ac:	8fb4002c 	lw	s4,44(sp)
     1b0:	8fb30030 	lw	s3,48(sp)
     1b4:	8fb20034 	lw	s2,52(sp)
     1b8:	8fb10038 	lw	s1,56(sp)
     1bc:	8fb0003c 	lw	s0,60(sp)
     1c0:	8faf0040 	lw	t7,64(sp)
     1c4:	8fae0044 	lw	t6,68(sp)
     1c8:	8fad0048 	lw	t5,72(sp)
     1cc:	8fac004c 	lw	t4,76(sp)
     1d0:	8fab0050 	lw	t3,80(sp)
     1d4:	8faa0054 	lw	t2,84(sp)
     1d8:	8fa90058 	lw	t1,88(sp)
     1dc:	8fa8005c 	lw	t0,92(sp)
     1e0:	8fa70060 	lw	a3,96(sp)
     1e4:	8fa60064 	lw	a2,100(sp)
     1e8:	8fa50068 	lw	a1,104(sp)
     1ec:	8fa4006c 	lw	a0,108(sp)
     1f0:	8fa30070 	lw	v1,112(sp)
     1f4:	8fa20074 	lw	v0,116(sp)
     1f8:	8fa10078 	lw	at,120(sp)
     1fc:	8fba007c 	lw	k0,124(sp)
     200:	00000000 	nop
     204:	0340e825 	move	sp,k0
     208:	401b7000 	mfc0	k1,c0_epc
     20c:	00000000 	nop
     210:	42000010 	c0	0x10
     214:	03600008 	jr	k1
     218:	00000000 	nop
     21c:	00000000 	nop

00000220 <memcpy>:
     220:	27bdfff0 	addiu	sp,sp,-16
     224:	afbe000c 	sw	s8,12(sp)
     228:	03a0f025 	move	s8,sp
     22c:	afc40010 	sw	a0,16(s8)
     230:	afc50014 	sw	a1,20(s8)
     234:	afc60018 	sw	a2,24(s8)
     238:	8fc20010 	lw	v0,16(s8)
     23c:	00000000 	nop
     240:	afc20000 	sw	v0,0(s8)
     244:	8fc20014 	lw	v0,20(s8)
     248:	00000000 	nop
     24c:	afc20004 	sw	v0,4(s8)
     250:	1000000c 	b	284 <memcpy+0x64>
     254:	00000000 	nop
     258:	8fc30004 	lw	v1,4(s8)
     25c:	00000000 	nop
     260:	24620001 	addiu	v0,v1,1
     264:	afc20004 	sw	v0,4(s8)
     268:	8fc20000 	lw	v0,0(s8)
     26c:	00000000 	nop
     270:	24440001 	addiu	a0,v0,1
     274:	afc40000 	sw	a0,0(s8)
     278:	80630000 	lb	v1,0(v1)
     27c:	00000000 	nop
     280:	a0430000 	sb	v1,0(v0)
     284:	8fc20018 	lw	v0,24(s8)
     288:	00000000 	nop
     28c:	2443ffff 	addiu	v1,v0,-1
     290:	afc30018 	sw	v1,24(s8)
     294:	1440fff0 	bnez	v0,258 <memcpy+0x38>
     298:	00000000 	nop
     29c:	8fc20010 	lw	v0,16(s8)
     2a0:	03c0e825 	move	sp,s8
     2a4:	8fbe000c 	lw	s8,12(sp)
     2a8:	27bd0010 	addiu	sp,sp,16
     2ac:	03e00008 	jr	ra
     2b0:	00000000 	nop

000002b4 <interrupt_handler>:
     2b4:	27bdffd8 	addiu	sp,sp,-40
     2b8:	afbf0024 	sw	ra,36(sp)
     2bc:	afbe0020 	sw	s8,32(sp)
     2c0:	03a0f025 	move	s8,sp
     2c4:	3402ff14 	li	v0,0xff14
     2c8:	afc20010 	sw	v0,16(s8)
     2cc:	3402ff1c 	li	v0,0xff1c
     2d0:	afc20014 	sw	v0,20(s8)
     2d4:	3402ff18 	li	v0,0xff18
     2d8:	afc20018 	sw	v0,24(s8)
     2dc:	0c0002ec 	jal	bb0 <lcd_init>
     2e0:	00000000 	nop
     2e4:	3c020000 	lui	v0,0x0
     2e8:	8c421a9c 	lw	v0,6812(v0)
     2ec:	00000000 	nop
     2f0:	10400067 	beqz	v0,490 <interrupt_handler+0x1dc>
     2f4:	00000000 	nop
     2f8:	3c020000 	lui	v0,0x0
     2fc:	8c431a9c 	lw	v1,6812(v0)
     300:	24020001 	li	v0,1
     304:	14620005 	bne	v1,v0,31c <interrupt_handler+0x68>
     308:	00000000 	nop
     30c:	3c020000 	lui	v0,0x0
     310:	ac401aac 	sw	zero,6828(v0)
     314:	1000005e 	b	490 <interrupt_handler+0x1dc>
     318:	00000000 	nop
     31c:	3c020000 	lui	v0,0x0
     320:	8c431a9c 	lw	v1,6812(v0)
     324:	24020002 	li	v0,2
     328:	14620059 	bne	v1,v0,490 <interrupt_handler+0x1dc>
     32c:	00000000 	nop
     330:	3c020000 	lui	v0,0x0
     334:	8c421aac 	lw	v0,6828(v0)
     338:	00000000 	nop
     33c:	2842000c 	slti	v0,v0,12
     340:	14400007 	bnez	v0,360 <interrupt_handler+0xac>
     344:	00000000 	nop
     348:	3c020000 	lui	v0,0x0
     34c:	8c421aac 	lw	v0,6828(v0)
     350:	24030017 	li	v1,23
     354:	00621023 	subu	v0,v1,v0
     358:	10000003 	b	368 <interrupt_handler+0xb4>
     35c:	00000000 	nop
     360:	3c020000 	lui	v0,0x0
     364:	8c421aac 	lw	v0,6828(v0)
     368:	3c030000 	lui	v1,0x0
     36c:	ac621aa0 	sw	v0,6816(v1)
     370:	3c020000 	lui	v0,0x0
     374:	8c431aa0 	lw	v1,6816(v0)
     378:	3c020000 	lui	v0,0x0
     37c:	8c421a98 	lw	v0,6808(v0)
     380:	00000000 	nop
     384:	00402825 	move	a1,v0
     388:	00602025 	move	a0,v1
     38c:	0c0001e3 	jal	78c <show_ball>
     390:	00000000 	nop
     394:	8fc20010 	lw	v0,16(s8)
     398:	00000000 	nop
     39c:	8c420000 	lw	v0,0(v0)
     3a0:	00000000 	nop
     3a4:	00021883 	sra	v1,v0,0x2
     3a8:	3c028000 	lui	v0,0x8000
     3ac:	34420007 	ori	v0,v0,0x7
     3b0:	00621024 	and	v0,v1,v0
     3b4:	04410005 	bgez	v0,3cc <interrupt_handler+0x118>
     3b8:	00000000 	nop
     3bc:	2442ffff 	addiu	v0,v0,-1
     3c0:	2403fff8 	li	v1,-8
     3c4:	00431025 	or	v0,v0,v1
     3c8:	24420001 	addiu	v0,v0,1
     3cc:	00401825 	move	v1,v0
     3d0:	3c020000 	lui	v0,0x0
     3d4:	ac431aa4 	sw	v1,6820(v0)
     3d8:	8fc20014 	lw	v0,20(s8)
     3dc:	00000000 	nop
     3e0:	8c420000 	lw	v0,0(v0)
     3e4:	00000000 	nop
     3e8:	00021883 	sra	v1,v0,0x2
     3ec:	3c028000 	lui	v0,0x8000
     3f0:	34420007 	ori	v0,v0,0x7
     3f4:	00621024 	and	v0,v1,v0
     3f8:	04410005 	bgez	v0,410 <interrupt_handler+0x15c>
     3fc:	00000000 	nop
     400:	2442ffff 	addiu	v0,v0,-1
     404:	2403fff8 	li	v1,-8
     408:	00431025 	or	v0,v0,v1
     40c:	24420001 	addiu	v0,v0,1
     410:	00401825 	move	v1,v0
     414:	3c020000 	lui	v0,0x0
     418:	ac431aa8 	sw	v1,6824(v0)
     41c:	3c020000 	lui	v0,0x0
     420:	8c431aa4 	lw	v1,6820(v0)
     424:	3c020000 	lui	v0,0x0
     428:	8c421aa8 	lw	v0,6824(v0)
     42c:	00000000 	nop
     430:	00402825 	move	a1,v0
     434:	00602025 	move	a0,v1
     438:	0c0001f7 	jal	7dc <show_player>
     43c:	00000000 	nop
     440:	0c00042f 	jal	10bc <kypd_scan>
     444:	00000000 	nop
     448:	00401825 	move	v1,v0
     44c:	8fc20018 	lw	v0,24(s8)
     450:	00000000 	nop
     454:	ac430000 	sw	v1,0(v0)
     458:	3c020000 	lui	v0,0x0
     45c:	8c421aac 	lw	v0,6828(v0)
     460:	00000000 	nop
     464:	24430001 	addiu	v1,v0,1
     468:	3c020000 	lui	v0,0x0
     46c:	ac431aac 	sw	v1,6828(v0)
     470:	3c020000 	lui	v0,0x0
     474:	8c421aac 	lw	v0,6828(v0)
     478:	00000000 	nop
     47c:	28420018 	slti	v0,v0,24
     480:	14400003 	bnez	v0,490 <interrupt_handler+0x1dc>
     484:	00000000 	nop
     488:	3c020000 	lui	v0,0x0
     48c:	ac401aac 	sw	zero,6828(v0)
     490:	0c00037d 	jal	df4 <lcd_sync_vbuf>
     494:	00000000 	nop
     498:	00000000 	nop
     49c:	03c0e825 	move	sp,s8
     4a0:	8fbf0024 	lw	ra,36(sp)
     4a4:	8fbe0020 	lw	s8,32(sp)
     4a8:	27bd0028 	addiu	sp,sp,40
     4ac:	03e00008 	jr	ra
     4b0:	00000000 	nop

000004b4 <lcd_digit3>:
     4b4:	27bdffd8 	addiu	sp,sp,-40
     4b8:	afbf0024 	sw	ra,36(sp)
     4bc:	afbe0020 	sw	s8,32(sp)
     4c0:	03a0f025 	move	s8,sp
     4c4:	afc40028 	sw	a0,40(s8)
     4c8:	afc5002c 	sw	a1,44(s8)
     4cc:	afc60030 	sw	a2,48(s8)
     4d0:	8fc20030 	lw	v0,48(s8)
     4d4:	00000000 	nop
     4d8:	2c420064 	sltiu	v0,v0,100
     4dc:	14400013 	bnez	v0,52c <lcd_digit3+0x78>
     4e0:	00000000 	nop
     4e4:	8fc30030 	lw	v1,48(s8)
     4e8:	240203e8 	li	v0,1000
     4ec:	0062001b 	divu	zero,v1,v0
     4f0:	14400002 	bnez	v0,4fc <lcd_digit3+0x48>
     4f4:	00000000 	nop
     4f8:	0007000d 	break	0x7
     4fc:	00001010 	mfhi	v0
     500:	00401825 	move	v1,v0
     504:	24020064 	li	v0,100
     508:	0062001b 	divu	zero,v1,v0
     50c:	14400002 	bnez	v0,518 <lcd_digit3+0x64>
     510:	00000000 	nop
     514:	0007000d 	break	0x7
     518:	00001010 	mfhi	v0
     51c:	00001012 	mflo	v0
     520:	24420030 	addiu	v0,v0,48
     524:	10000002 	b	530 <lcd_digit3+0x7c>
     528:	00000000 	nop
     52c:	24020020 	li	v0,32
     530:	afc20010 	sw	v0,16(s8)
     534:	8fc20030 	lw	v0,48(s8)
     538:	00000000 	nop
     53c:	2c42000a 	sltiu	v0,v0,10
     540:	14400013 	bnez	v0,590 <lcd_digit3+0xdc>
     544:	00000000 	nop
     548:	8fc30030 	lw	v1,48(s8)
     54c:	24020064 	li	v0,100
     550:	0062001b 	divu	zero,v1,v0
     554:	14400002 	bnez	v0,560 <lcd_digit3+0xac>
     558:	00000000 	nop
     55c:	0007000d 	break	0x7
     560:	00001010 	mfhi	v0
     564:	00401825 	move	v1,v0
     568:	2402000a 	li	v0,10
     56c:	0062001b 	divu	zero,v1,v0
     570:	14400002 	bnez	v0,57c <lcd_digit3+0xc8>
     574:	00000000 	nop
     578:	0007000d 	break	0x7
     57c:	00001010 	mfhi	v0
     580:	00001012 	mflo	v0
     584:	24420030 	addiu	v0,v0,48
     588:	10000002 	b	594 <lcd_digit3+0xe0>
     58c:	00000000 	nop
     590:	24020020 	li	v0,32
     594:	afc20014 	sw	v0,20(s8)
     598:	8fc30030 	lw	v1,48(s8)
     59c:	2402000a 	li	v0,10
     5a0:	0062001b 	divu	zero,v1,v0
     5a4:	14400002 	bnez	v0,5b0 <lcd_digit3+0xfc>
     5a8:	00000000 	nop
     5ac:	0007000d 	break	0x7
     5b0:	00001010 	mfhi	v0
     5b4:	24420030 	addiu	v0,v0,48
     5b8:	afc20018 	sw	v0,24(s8)
     5bc:	8fc60010 	lw	a2,16(s8)
     5c0:	00002825 	move	a1,zero
     5c4:	00002025 	move	a0,zero
     5c8:	0c0003b1 	jal	ec4 <lcd_putc>
     5cc:	00000000 	nop
     5d0:	8fc60014 	lw	a2,20(s8)
     5d4:	24050001 	li	a1,1
     5d8:	00002025 	move	a0,zero
     5dc:	0c0003b1 	jal	ec4 <lcd_putc>
     5e0:	00000000 	nop
     5e4:	8fc60018 	lw	a2,24(s8)
     5e8:	24050002 	li	a1,2
     5ec:	00002025 	move	a0,zero
     5f0:	0c0003b1 	jal	ec4 <lcd_putc>
     5f4:	00000000 	nop
     5f8:	00000000 	nop
     5fc:	03c0e825 	move	sp,s8
     600:	8fbf0024 	lw	ra,36(sp)
     604:	8fbe0020 	lw	s8,32(sp)
     608:	27bd0028 	addiu	sp,sp,40
     60c:	03e00008 	jr	ra
     610:	00000000 	nop

00000614 <main>:
     614:	27bdffe8 	addiu	sp,sp,-24
     618:	afbf0014 	sw	ra,20(sp)
     61c:	afbe0010 	sw	s8,16(sp)
     620:	03a0f025 	move	s8,sp
     624:	3c020000 	lui	v0,0x0
     628:	8c421a9c 	lw	v0,6812(v0)
     62c:	00000000 	nop
     630:	14400008 	bnez	v0,654 <main+0x40>
     634:	00000000 	nop
     638:	0c0002ec 	jal	bb0 <lcd_init>
     63c:	00000000 	nop
     640:	3c020000 	lui	v0,0x0
     644:	24030001 	li	v1,1
     648:	ac431a9c 	sw	v1,6812(v0)
     64c:	1000fff5 	b	624 <main+0x10>
     650:	00000000 	nop
     654:	3c020000 	lui	v0,0x0
     658:	8c431a9c 	lw	v1,6812(v0)
     65c:	24020001 	li	v0,1
     660:	14620008 	bne	v1,v0,684 <main+0x70>
     664:	00000000 	nop
     668:	3c020000 	lui	v0,0x0
     66c:	24030002 	li	v1,2
     670:	ac431a9c 	sw	v1,6812(v0)
     674:	0c00055a 	jal	1568 <play_song>
     678:	00000000 	nop
     67c:	1000ffe9 	b	624 <main+0x10>
     680:	00000000 	nop
     684:	3c020000 	lui	v0,0x0
     688:	8c431a9c 	lw	v1,6812(v0)
     68c:	24020002 	li	v0,2
     690:	14620008 	bne	v1,v0,6b4 <main+0xa0>
     694:	00000000 	nop
     698:	0c0001b7 	jal	6dc <play>
     69c:	00000000 	nop
     6a0:	3c020000 	lui	v0,0x0
     6a4:	24030003 	li	v1,3
     6a8:	ac431a9c 	sw	v1,6812(v0)
     6ac:	1000ffdd 	b	624 <main+0x10>
     6b0:	00000000 	nop
     6b4:	3c020000 	lui	v0,0x0
     6b8:	8c431a9c 	lw	v1,6812(v0)
     6bc:	24020003 	li	v0,3
     6c0:	1462ffd8 	bne	v1,v0,624 <main+0x10>
     6c4:	00000000 	nop
     6c8:	3c020000 	lui	v0,0x0
     6cc:	24030001 	li	v1,1
     6d0:	ac431a9c 	sw	v1,6812(v0)
     6d4:	1000ffd3 	b	624 <main+0x10>
     6d8:	00000000 	nop

000006dc <play>:
     6dc:	27bdffe8 	addiu	sp,sp,-24
     6e0:	afbf0014 	sw	ra,20(sp)
     6e4:	afbe0010 	sw	s8,16(sp)
     6e8:	03a0f025 	move	s8,sp
     6ec:	3c020000 	lui	v0,0x0
     6f0:	8c421aa0 	lw	v0,6816(v0)
     6f4:	00000000 	nop
     6f8:	14400009 	bnez	v0,720 <play+0x44>
     6fc:	00000000 	nop
     700:	0c000212 	jal	848 <btn_check_0>
     704:	00000000 	nop
     708:	10400005 	beqz	v0,720 <play+0x44>
     70c:	00000000 	nop
     710:	0c000255 	jal	954 <led_blink>
     714:	00000000 	nop
     718:	10000012 	b	764 <play+0x88>
     71c:	00000000 	nop
     720:	3c020000 	lui	v0,0x0
     724:	8c431aa0 	lw	v1,6816(v0)
     728:	2402000b 	li	v0,11
     72c:	14620009 	bne	v1,v0,754 <play+0x78>
     730:	00000000 	nop
     734:	0c000234 	jal	8d0 <btn_check_3>
     738:	00000000 	nop
     73c:	10400005 	beqz	v0,754 <play+0x78>
     740:	00000000 	nop
     744:	0c000255 	jal	954 <led_blink>
     748:	00000000 	nop
     74c:	10000005 	b	764 <play+0x88>
     750:	00000000 	nop
     754:	0c000223 	jal	88c <btn_check_1>
     758:	00000000 	nop
     75c:	14400003 	bnez	v0,76c <play+0x90>
     760:	00000000 	nop
     764:	1000ffe1 	b	6ec <play+0x10>
     768:	00000000 	nop
     76c:	00000000 	nop
     770:	00000000 	nop
     774:	03c0e825 	move	sp,s8
     778:	8fbf0014 	lw	ra,20(sp)
     77c:	8fbe0010 	lw	s8,16(sp)
     780:	27bd0018 	addiu	sp,sp,24
     784:	03e00008 	jr	ra
     788:	00000000 	nop

0000078c <show_ball>:
     78c:	27bdffe8 	addiu	sp,sp,-24
     790:	afbf0014 	sw	ra,20(sp)
     794:	afbe0010 	sw	s8,16(sp)
     798:	03a0f025 	move	s8,sp
     79c:	afc40018 	sw	a0,24(s8)
     7a0:	afc5001c 	sw	a1,28(s8)
     7a4:	0c00034f 	jal	d3c <lcd_clear_vbuf>
     7a8:	00000000 	nop
     7ac:	2406002a 	li	a2,42
     7b0:	8fc50018 	lw	a1,24(s8)
     7b4:	8fc4001c 	lw	a0,28(s8)
     7b8:	0c0003b1 	jal	ec4 <lcd_putc>
     7bc:	00000000 	nop
     7c0:	00000000 	nop
     7c4:	03c0e825 	move	sp,s8
     7c8:	8fbf0014 	lw	ra,20(sp)
     7cc:	8fbe0010 	lw	s8,16(sp)
     7d0:	27bd0018 	addiu	sp,sp,24
     7d4:	03e00008 	jr	ra
     7d8:	00000000 	nop

000007dc <show_player>:
     7dc:	27bdffe8 	addiu	sp,sp,-24
     7e0:	afbf0014 	sw	ra,20(sp)
     7e4:	afbe0010 	sw	s8,16(sp)
     7e8:	03a0f025 	move	s8,sp
     7ec:	afc40018 	sw	a0,24(s8)
     7f0:	afc5001c 	sw	a1,28(s8)
     7f4:	0c00034f 	jal	d3c <lcd_clear_vbuf>
     7f8:	00000000 	nop
     7fc:	24060030 	li	a2,48
     800:	24050002 	li	a1,2
     804:	8fc40018 	lw	a0,24(s8)
     808:	0c0003b1 	jal	ec4 <lcd_putc>
     80c:	00000000 	nop
     810:	3c020000 	lui	v0,0x0
     814:	8c421aa8 	lw	v0,6824(v0)
     818:	24060030 	li	a2,48
     81c:	2405000a 	li	a1,10
     820:	00402025 	move	a0,v0
     824:	0c0003b1 	jal	ec4 <lcd_putc>
     828:	00000000 	nop
     82c:	00000000 	nop
     830:	03c0e825 	move	sp,s8
     834:	8fbf0014 	lw	ra,20(sp)
     838:	8fbe0010 	lw	s8,16(sp)
     83c:	27bd0018 	addiu	sp,sp,24
     840:	03e00008 	jr	ra
     844:	00000000 	nop

00000848 <btn_check_0>:
     848:	27bdfff0 	addiu	sp,sp,-16
     84c:	afbe000c 	sw	s8,12(sp)
     850:	03a0f025 	move	s8,sp
     854:	3402ff04 	li	v0,0xff04
     858:	afc20000 	sw	v0,0(s8)
     85c:	8fc20000 	lw	v0,0(s8)
     860:	00000000 	nop
     864:	8c420000 	lw	v0,0(v0)
     868:	00000000 	nop
     86c:	30420010 	andi	v0,v0,0x10
     870:	0002102b 	sltu	v0,zero,v0
     874:	304200ff 	andi	v0,v0,0xff
     878:	03c0e825 	move	sp,s8
     87c:	8fbe000c 	lw	s8,12(sp)
     880:	27bd0010 	addiu	sp,sp,16
     884:	03e00008 	jr	ra
     888:	00000000 	nop

0000088c <btn_check_1>:
     88c:	27bdfff0 	addiu	sp,sp,-16
     890:	afbe000c 	sw	s8,12(sp)
     894:	03a0f025 	move	s8,sp
     898:	3402ff04 	li	v0,0xff04
     89c:	afc20000 	sw	v0,0(s8)
     8a0:	8fc20000 	lw	v0,0(s8)
     8a4:	00000000 	nop
     8a8:	8c420000 	lw	v0,0(v0)
     8ac:	00000000 	nop
     8b0:	30420020 	andi	v0,v0,0x20
     8b4:	0002102b 	sltu	v0,zero,v0
     8b8:	304200ff 	andi	v0,v0,0xff
     8bc:	03c0e825 	move	sp,s8
     8c0:	8fbe000c 	lw	s8,12(sp)
     8c4:	27bd0010 	addiu	sp,sp,16
     8c8:	03e00008 	jr	ra
     8cc:	00000000 	nop

000008d0 <btn_check_3>:
     8d0:	27bdfff0 	addiu	sp,sp,-16
     8d4:	afbe000c 	sw	s8,12(sp)
     8d8:	03a0f025 	move	s8,sp
     8dc:	3402ff04 	li	v0,0xff04
     8e0:	afc20000 	sw	v0,0(s8)
     8e4:	8fc20000 	lw	v0,0(s8)
     8e8:	00000000 	nop
     8ec:	8c420000 	lw	v0,0(v0)
     8f0:	00000000 	nop
     8f4:	30420080 	andi	v0,v0,0x80
     8f8:	0002102b 	sltu	v0,zero,v0
     8fc:	304200ff 	andi	v0,v0,0xff
     900:	03c0e825 	move	sp,s8
     904:	8fbe000c 	lw	s8,12(sp)
     908:	27bd0010 	addiu	sp,sp,16
     90c:	03e00008 	jr	ra
     910:	00000000 	nop

00000914 <led_set>:
     914:	27bdfff0 	addiu	sp,sp,-16
     918:	afbe000c 	sw	s8,12(sp)
     91c:	03a0f025 	move	s8,sp
     920:	afc40010 	sw	a0,16(s8)
     924:	3402ff08 	li	v0,0xff08
     928:	afc20000 	sw	v0,0(s8)
     92c:	8fc20000 	lw	v0,0(s8)
     930:	8fc30010 	lw	v1,16(s8)
     934:	00000000 	nop
     938:	ac430000 	sw	v1,0(v0)
     93c:	00000000 	nop
     940:	03c0e825 	move	sp,s8
     944:	8fbe000c 	lw	s8,12(sp)
     948:	27bd0010 	addiu	sp,sp,16
     94c:	03e00008 	jr	ra
     950:	00000000 	nop

00000954 <led_blink>:
     954:	27bdffd8 	addiu	sp,sp,-40
     958:	afbf0024 	sw	ra,36(sp)
     95c:	afbe0020 	sw	s8,32(sp)
     960:	03a0f025 	move	s8,sp
     964:	2404000f 	li	a0,15
     968:	0c000245 	jal	914 <led_set>
     96c:	00000000 	nop
     970:	afc00010 	sw	zero,16(s8)
     974:	10000005 	b	98c <led_blink+0x38>
     978:	00000000 	nop
     97c:	8fc20010 	lw	v0,16(s8)
     980:	00000000 	nop
     984:	24420001 	addiu	v0,v0,1
     988:	afc20010 	sw	v0,16(s8)
     98c:	8fc30010 	lw	v1,16(s8)
     990:	3c020004 	lui	v0,0x4
     994:	344293e0 	ori	v0,v0,0x93e0
     998:	0062102a 	slt	v0,v1,v0
     99c:	1440fff7 	bnez	v0,97c <led_blink+0x28>
     9a0:	00000000 	nop
     9a4:	00002025 	move	a0,zero
     9a8:	0c000245 	jal	914 <led_set>
     9ac:	00000000 	nop
     9b0:	afc00014 	sw	zero,20(s8)
     9b4:	10000005 	b	9cc <led_blink+0x78>
     9b8:	00000000 	nop
     9bc:	8fc20014 	lw	v0,20(s8)
     9c0:	00000000 	nop
     9c4:	24420001 	addiu	v0,v0,1
     9c8:	afc20014 	sw	v0,20(s8)
     9cc:	8fc30014 	lw	v1,20(s8)
     9d0:	3c020004 	lui	v0,0x4
     9d4:	344293e0 	ori	v0,v0,0x93e0
     9d8:	0062102a 	slt	v0,v1,v0
     9dc:	1440fff7 	bnez	v0,9bc <led_blink+0x68>
     9e0:	00000000 	nop
     9e4:	2404000f 	li	a0,15
     9e8:	0c000245 	jal	914 <led_set>
     9ec:	00000000 	nop
     9f0:	afc00018 	sw	zero,24(s8)
     9f4:	10000005 	b	a0c <led_blink+0xb8>
     9f8:	00000000 	nop
     9fc:	8fc20018 	lw	v0,24(s8)
     a00:	00000000 	nop
     a04:	24420001 	addiu	v0,v0,1
     a08:	afc20018 	sw	v0,24(s8)
     a0c:	8fc30018 	lw	v1,24(s8)
     a10:	3c020004 	lui	v0,0x4
     a14:	344293e0 	ori	v0,v0,0x93e0
     a18:	0062102a 	slt	v0,v1,v0
     a1c:	1440fff7 	bnez	v0,9fc <led_blink+0xa8>
     a20:	00000000 	nop
     a24:	00002025 	move	a0,zero
     a28:	0c000245 	jal	914 <led_set>
     a2c:	00000000 	nop
     a30:	00000000 	nop
     a34:	03c0e825 	move	sp,s8
     a38:	8fbf0024 	lw	ra,36(sp)
     a3c:	8fbe0020 	lw	s8,32(sp)
     a40:	27bd0028 	addiu	sp,sp,40
     a44:	03e00008 	jr	ra
     a48:	00000000 	nop

00000a4c <lcd_wait>:
     a4c:	27bdfff0 	addiu	sp,sp,-16
     a50:	afbe000c 	sw	s8,12(sp)
     a54:	03a0f025 	move	s8,sp
     a58:	afc40010 	sw	a0,16(s8)
     a5c:	afc00000 	sw	zero,0(s8)
     a60:	10000005 	b	a78 <lcd_wait+0x2c>
     a64:	00000000 	nop
     a68:	8fc20000 	lw	v0,0(s8)
     a6c:	00000000 	nop
     a70:	24420001 	addiu	v0,v0,1
     a74:	afc20000 	sw	v0,0(s8)
     a78:	8fc30000 	lw	v1,0(s8)
     a7c:	8fc20010 	lw	v0,16(s8)
     a80:	00000000 	nop
     a84:	0062102a 	slt	v0,v1,v0
     a88:	1440fff7 	bnez	v0,a68 <lcd_wait+0x1c>
     a8c:	00000000 	nop
     a90:	00000000 	nop
     a94:	03c0e825 	move	sp,s8
     a98:	8fbe000c 	lw	s8,12(sp)
     a9c:	27bd0010 	addiu	sp,sp,16
     aa0:	03e00008 	jr	ra
     aa4:	00000000 	nop

00000aa8 <lcd_cmd>:
     aa8:	27bdffe0 	addiu	sp,sp,-32
     aac:	afbf001c 	sw	ra,28(sp)
     ab0:	afbe0018 	sw	s8,24(sp)
     ab4:	03a0f025 	move	s8,sp
     ab8:	00801025 	move	v0,a0
     abc:	a3c20020 	sb	v0,32(s8)
     ac0:	3402ff0c 	li	v0,0xff0c
     ac4:	afc20010 	sw	v0,16(s8)
     ac8:	93c30020 	lbu	v1,32(s8)
     acc:	8fc20010 	lw	v0,16(s8)
     ad0:	00000000 	nop
     ad4:	ac430000 	sw	v1,0(v0)
     ad8:	240403e8 	li	a0,1000
     adc:	0c000293 	jal	a4c <lcd_wait>
     ae0:	00000000 	nop
     ae4:	00000000 	nop
     ae8:	03c0e825 	move	sp,s8
     aec:	8fbf001c 	lw	ra,28(sp)
     af0:	8fbe0018 	lw	s8,24(sp)
     af4:	27bd0020 	addiu	sp,sp,32
     af8:	03e00008 	jr	ra
     afc:	00000000 	nop

00000b00 <lcd_data>:
     b00:	27bdffe0 	addiu	sp,sp,-32
     b04:	afbf001c 	sw	ra,28(sp)
     b08:	afbe0018 	sw	s8,24(sp)
     b0c:	03a0f025 	move	s8,sp
     b10:	00801025 	move	v0,a0
     b14:	a3c20020 	sb	v0,32(s8)
     b18:	3402ff0c 	li	v0,0xff0c
     b1c:	afc20010 	sw	v0,16(s8)
     b20:	93c20020 	lbu	v0,32(s8)
     b24:	00000000 	nop
     b28:	34430100 	ori	v1,v0,0x100
     b2c:	8fc20010 	lw	v0,16(s8)
     b30:	00000000 	nop
     b34:	ac430000 	sw	v1,0(v0)
     b38:	240400c8 	li	a0,200
     b3c:	0c000293 	jal	a4c <lcd_wait>
     b40:	00000000 	nop
     b44:	00000000 	nop
     b48:	03c0e825 	move	sp,s8
     b4c:	8fbf001c 	lw	ra,28(sp)
     b50:	8fbe0018 	lw	s8,24(sp)
     b54:	27bd0020 	addiu	sp,sp,32
     b58:	03e00008 	jr	ra
     b5c:	00000000 	nop

00000b60 <lcd_pwr_on>:
     b60:	27bdffe0 	addiu	sp,sp,-32
     b64:	afbf001c 	sw	ra,28(sp)
     b68:	afbe0018 	sw	s8,24(sp)
     b6c:	03a0f025 	move	s8,sp
     b70:	3402ff0c 	li	v0,0xff0c
     b74:	afc20010 	sw	v0,16(s8)
     b78:	8fc20010 	lw	v0,16(s8)
     b7c:	24030200 	li	v1,512
     b80:	ac430000 	sw	v1,0(v0)
     b84:	3c02000a 	lui	v0,0xa
     b88:	3444ae60 	ori	a0,v0,0xae60
     b8c:	0c000293 	jal	a4c <lcd_wait>
     b90:	00000000 	nop
     b94:	00000000 	nop
     b98:	03c0e825 	move	sp,s8
     b9c:	8fbf001c 	lw	ra,28(sp)
     ba0:	8fbe0018 	lw	s8,24(sp)
     ba4:	27bd0020 	addiu	sp,sp,32
     ba8:	03e00008 	jr	ra
     bac:	00000000 	nop

00000bb0 <lcd_init>:
     bb0:	27bdffe8 	addiu	sp,sp,-24
     bb4:	afbf0014 	sw	ra,20(sp)
     bb8:	afbe0010 	sw	s8,16(sp)
     bbc:	03a0f025 	move	s8,sp
     bc0:	0c0002d8 	jal	b60 <lcd_pwr_on>
     bc4:	00000000 	nop
     bc8:	240400a0 	li	a0,160
     bcc:	0c0002aa 	jal	aa8 <lcd_cmd>
     bd0:	00000000 	nop
     bd4:	24040020 	li	a0,32
     bd8:	0c0002aa 	jal	aa8 <lcd_cmd>
     bdc:	00000000 	nop
     be0:	24040015 	li	a0,21
     be4:	0c0002aa 	jal	aa8 <lcd_cmd>
     be8:	00000000 	nop
     bec:	00002025 	move	a0,zero
     bf0:	0c0002aa 	jal	aa8 <lcd_cmd>
     bf4:	00000000 	nop
     bf8:	2404005f 	li	a0,95
     bfc:	0c0002aa 	jal	aa8 <lcd_cmd>
     c00:	00000000 	nop
     c04:	24040075 	li	a0,117
     c08:	0c0002aa 	jal	aa8 <lcd_cmd>
     c0c:	00000000 	nop
     c10:	00002025 	move	a0,zero
     c14:	0c0002aa 	jal	aa8 <lcd_cmd>
     c18:	00000000 	nop
     c1c:	2404003f 	li	a0,63
     c20:	0c0002aa 	jal	aa8 <lcd_cmd>
     c24:	00000000 	nop
     c28:	240400af 	li	a0,175
     c2c:	0c0002aa 	jal	aa8 <lcd_cmd>
     c30:	00000000 	nop
     c34:	00000000 	nop
     c38:	03c0e825 	move	sp,s8
     c3c:	8fbf0014 	lw	ra,20(sp)
     c40:	8fbe0010 	lw	s8,16(sp)
     c44:	27bd0018 	addiu	sp,sp,24
     c48:	03e00008 	jr	ra
     c4c:	00000000 	nop

00000c50 <lcd_set_vbuf_pixel>:
     c50:	27bdfff8 	addiu	sp,sp,-8
     c54:	afbe0004 	sw	s8,4(sp)
     c58:	03a0f025 	move	s8,sp
     c5c:	afc40008 	sw	a0,8(s8)
     c60:	afc5000c 	sw	a1,12(s8)
     c64:	afc60010 	sw	a2,16(s8)
     c68:	afc70014 	sw	a3,20(s8)
     c6c:	8fc20010 	lw	v0,16(s8)
     c70:	00000000 	nop
     c74:	00021143 	sra	v0,v0,0x5
     c78:	afc20010 	sw	v0,16(s8)
     c7c:	8fc20014 	lw	v0,20(s8)
     c80:	00000000 	nop
     c84:	00021143 	sra	v0,v0,0x5
     c88:	afc20014 	sw	v0,20(s8)
     c8c:	8fc20018 	lw	v0,24(s8)
     c90:	00000000 	nop
     c94:	00021183 	sra	v0,v0,0x6
     c98:	afc20018 	sw	v0,24(s8)
     c9c:	8fc20010 	lw	v0,16(s8)
     ca0:	00000000 	nop
     ca4:	00021140 	sll	v0,v0,0x5
     ca8:	00021e00 	sll	v1,v0,0x18
     cac:	00031e03 	sra	v1,v1,0x18
     cb0:	8fc20014 	lw	v0,20(s8)
     cb4:	00000000 	nop
     cb8:	00021080 	sll	v0,v0,0x2
     cbc:	00021600 	sll	v0,v0,0x18
     cc0:	00021603 	sra	v0,v0,0x18
     cc4:	00621025 	or	v0,v1,v0
     cc8:	00021e00 	sll	v1,v0,0x18
     ccc:	00031e03 	sra	v1,v1,0x18
     cd0:	8fc20018 	lw	v0,24(s8)
     cd4:	00000000 	nop
     cd8:	00021600 	sll	v0,v0,0x18
     cdc:	00021603 	sra	v0,v0,0x18
     ce0:	00621025 	or	v0,v1,v0
     ce4:	00021600 	sll	v0,v0,0x18
     ce8:	00021603 	sra	v0,v0,0x18
     cec:	304400ff 	andi	a0,v0,0xff
     cf0:	3c050000 	lui	a1,0x0
     cf4:	8fc30008 	lw	v1,8(s8)
     cf8:	00000000 	nop
     cfc:	00601025 	move	v0,v1
     d00:	00021040 	sll	v0,v0,0x1
     d04:	00431021 	addu	v0,v0,v1
     d08:	00021140 	sll	v0,v0,0x5
     d0c:	24a31ab0 	addiu	v1,a1,6832
     d10:	00431821 	addu	v1,v0,v1
     d14:	8fc2000c 	lw	v0,12(s8)
     d18:	00000000 	nop
     d1c:	00621021 	addu	v0,v1,v0
     d20:	a0440000 	sb	a0,0(v0)
     d24:	00000000 	nop
     d28:	03c0e825 	move	sp,s8
     d2c:	8fbe0004 	lw	s8,4(sp)
     d30:	27bd0008 	addiu	sp,sp,8
     d34:	03e00008 	jr	ra
     d38:	00000000 	nop

00000d3c <lcd_clear_vbuf>:
     d3c:	27bdfff0 	addiu	sp,sp,-16
     d40:	afbe000c 	sw	s8,12(sp)
     d44:	03a0f025 	move	s8,sp
     d48:	afc00000 	sw	zero,0(s8)
     d4c:	1000001e 	b	dc8 <lcd_clear_vbuf+0x8c>
     d50:	00000000 	nop
     d54:	afc00004 	sw	zero,4(s8)
     d58:	10000012 	b	da4 <lcd_clear_vbuf+0x68>
     d5c:	00000000 	nop
     d60:	3c040000 	lui	a0,0x0
     d64:	8fc30000 	lw	v1,0(s8)
     d68:	00000000 	nop
     d6c:	00601025 	move	v0,v1
     d70:	00021040 	sll	v0,v0,0x1
     d74:	00431021 	addu	v0,v0,v1
     d78:	00021140 	sll	v0,v0,0x5
     d7c:	24831ab0 	addiu	v1,a0,6832
     d80:	00431821 	addu	v1,v0,v1
     d84:	8fc20004 	lw	v0,4(s8)
     d88:	00000000 	nop
     d8c:	00621021 	addu	v0,v1,v0
     d90:	a0400000 	sb	zero,0(v0)
     d94:	8fc20004 	lw	v0,4(s8)
     d98:	00000000 	nop
     d9c:	24420001 	addiu	v0,v0,1
     da0:	afc20004 	sw	v0,4(s8)
     da4:	8fc20004 	lw	v0,4(s8)
     da8:	00000000 	nop
     dac:	28420060 	slti	v0,v0,96
     db0:	1440ffeb 	bnez	v0,d60 <lcd_clear_vbuf+0x24>
     db4:	00000000 	nop
     db8:	8fc20000 	lw	v0,0(s8)
     dbc:	00000000 	nop
     dc0:	24420001 	addiu	v0,v0,1
     dc4:	afc20000 	sw	v0,0(s8)
     dc8:	8fc20000 	lw	v0,0(s8)
     dcc:	00000000 	nop
     dd0:	28420040 	slti	v0,v0,64
     dd4:	1440ffdf 	bnez	v0,d54 <lcd_clear_vbuf+0x18>
     dd8:	00000000 	nop
     ddc:	00000000 	nop
     de0:	03c0e825 	move	sp,s8
     de4:	8fbe000c 	lw	s8,12(sp)
     de8:	27bd0010 	addiu	sp,sp,16
     dec:	03e00008 	jr	ra
     df0:	00000000 	nop

00000df4 <lcd_sync_vbuf>:
     df4:	27bdffe0 	addiu	sp,sp,-32
     df8:	afbf001c 	sw	ra,28(sp)
     dfc:	afbe0018 	sw	s8,24(sp)
     e00:	03a0f025 	move	s8,sp
     e04:	afc00010 	sw	zero,16(s8)
     e08:	10000022 	b	e94 <lcd_sync_vbuf+0xa0>
     e0c:	00000000 	nop
     e10:	afc00014 	sw	zero,20(s8)
     e14:	10000016 	b	e70 <lcd_sync_vbuf+0x7c>
     e18:	00000000 	nop
     e1c:	3c040000 	lui	a0,0x0
     e20:	8fc30010 	lw	v1,16(s8)
     e24:	00000000 	nop
     e28:	00601025 	move	v0,v1
     e2c:	00021040 	sll	v0,v0,0x1
     e30:	00431021 	addu	v0,v0,v1
     e34:	00021140 	sll	v0,v0,0x5
     e38:	24831ab0 	addiu	v1,a0,6832
     e3c:	00431821 	addu	v1,v0,v1
     e40:	8fc20014 	lw	v0,20(s8)
     e44:	00000000 	nop
     e48:	00621021 	addu	v0,v1,v0
     e4c:	90420000 	lbu	v0,0(v0)
     e50:	00000000 	nop
     e54:	00402025 	move	a0,v0
     e58:	0c0002c0 	jal	b00 <lcd_data>
     e5c:	00000000 	nop
     e60:	8fc20014 	lw	v0,20(s8)
     e64:	00000000 	nop
     e68:	24420001 	addiu	v0,v0,1
     e6c:	afc20014 	sw	v0,20(s8)
     e70:	8fc20014 	lw	v0,20(s8)
     e74:	00000000 	nop
     e78:	28420060 	slti	v0,v0,96
     e7c:	1440ffe7 	bnez	v0,e1c <lcd_sync_vbuf+0x28>
     e80:	00000000 	nop
     e84:	8fc20010 	lw	v0,16(s8)
     e88:	00000000 	nop
     e8c:	24420001 	addiu	v0,v0,1
     e90:	afc20010 	sw	v0,16(s8)
     e94:	8fc20010 	lw	v0,16(s8)
     e98:	00000000 	nop
     e9c:	28420040 	slti	v0,v0,64
     ea0:	1440ffdb 	bnez	v0,e10 <lcd_sync_vbuf+0x1c>
     ea4:	00000000 	nop
     ea8:	00000000 	nop
     eac:	03c0e825 	move	sp,s8
     eb0:	8fbf001c 	lw	ra,28(sp)
     eb4:	8fbe0018 	lw	s8,24(sp)
     eb8:	27bd0020 	addiu	sp,sp,32
     ebc:	03e00008 	jr	ra
     ec0:	00000000 	nop

00000ec4 <lcd_putc>:
     ec4:	27bdffd8 	addiu	sp,sp,-40
     ec8:	afbf0024 	sw	ra,36(sp)
     ecc:	afbe0020 	sw	s8,32(sp)
     ed0:	03a0f025 	move	s8,sp
     ed4:	afc40028 	sw	a0,40(s8)
     ed8:	afc5002c 	sw	a1,44(s8)
     edc:	afc60030 	sw	a2,48(s8)
     ee0:	afc00018 	sw	zero,24(s8)
     ee4:	10000036 	b	fc0 <lcd_putc+0xfc>
     ee8:	00000000 	nop
     eec:	afc0001c 	sw	zero,28(s8)
     ef0:	1000002a 	b	f9c <lcd_putc+0xd8>
     ef4:	00000000 	nop
     ef8:	8fc20030 	lw	v0,48(s8)
     efc:	00000000 	nop
     f00:	2442ffe0 	addiu	v0,v0,-32
     f04:	000218c0 	sll	v1,v0,0x3
     f08:	8fc2001c 	lw	v0,28(s8)
     f0c:	00000000 	nop
     f10:	00621821 	addu	v1,v1,v0
     f14:	3c020000 	lui	v0,0x0
     f18:	24421774 	addiu	v0,v0,6004
     f1c:	00621021 	addu	v0,v1,v0
     f20:	90420000 	lbu	v0,0(v0)
     f24:	00000000 	nop
     f28:	00401825 	move	v1,v0
     f2c:	8fc20018 	lw	v0,24(s8)
     f30:	00000000 	nop
     f34:	00431007 	srav	v0,v1,v0
     f38:	30420001 	andi	v0,v0,0x1
     f3c:	10400013 	beqz	v0,f8c <lcd_putc+0xc8>
     f40:	00000000 	nop
     f44:	8fc20028 	lw	v0,40(s8)
     f48:	00000000 	nop
     f4c:	000218c0 	sll	v1,v0,0x3
     f50:	8fc20018 	lw	v0,24(s8)
     f54:	00000000 	nop
     f58:	00622021 	addu	a0,v1,v0
     f5c:	8fc2002c 	lw	v0,44(s8)
     f60:	00000000 	nop
     f64:	000218c0 	sll	v1,v0,0x3
     f68:	8fc2001c 	lw	v0,28(s8)
     f6c:	00000000 	nop
     f70:	00621021 	addu	v0,v1,v0
     f74:	afa00010 	sw	zero,16(sp)
     f78:	240700ff 	li	a3,255
     f7c:	00003025 	move	a2,zero
     f80:	00402825 	move	a1,v0
     f84:	0c000314 	jal	c50 <lcd_set_vbuf_pixel>
     f88:	00000000 	nop
     f8c:	8fc2001c 	lw	v0,28(s8)
     f90:	00000000 	nop
     f94:	24420001 	addiu	v0,v0,1
     f98:	afc2001c 	sw	v0,28(s8)
     f9c:	8fc2001c 	lw	v0,28(s8)
     fa0:	00000000 	nop
     fa4:	28420008 	slti	v0,v0,8
     fa8:	1440ffd3 	bnez	v0,ef8 <lcd_putc+0x34>
     fac:	00000000 	nop
     fb0:	8fc20018 	lw	v0,24(s8)
     fb4:	00000000 	nop
     fb8:	24420001 	addiu	v0,v0,1
     fbc:	afc20018 	sw	v0,24(s8)
     fc0:	8fc20018 	lw	v0,24(s8)
     fc4:	00000000 	nop
     fc8:	28420008 	slti	v0,v0,8
     fcc:	1440ffc7 	bnez	v0,eec <lcd_putc+0x28>
     fd0:	00000000 	nop
     fd4:	00000000 	nop
     fd8:	03c0e825 	move	sp,s8
     fdc:	8fbf0024 	lw	ra,36(sp)
     fe0:	8fbe0020 	lw	s8,32(sp)
     fe4:	27bd0028 	addiu	sp,sp,40
     fe8:	03e00008 	jr	ra
     fec:	00000000 	nop

00000ff0 <lcd_puts>:
     ff0:	27bdffe0 	addiu	sp,sp,-32
     ff4:	afbf001c 	sw	ra,28(sp)
     ff8:	afbe0018 	sw	s8,24(sp)
     ffc:	03a0f025 	move	s8,sp
    1000:	afc40020 	sw	a0,32(s8)
    1004:	afc50024 	sw	a1,36(s8)
    1008:	afc60028 	sw	a2,40(s8)
    100c:	8fc20024 	lw	v0,36(s8)
    1010:	00000000 	nop
    1014:	afc20010 	sw	v0,16(s8)
    1018:	10000019 	b	1080 <lcd_puts+0x90>
    101c:	00000000 	nop
    1020:	8fc20010 	lw	v0,16(s8)
    1024:	8fc30028 	lw	v1,40(s8)
    1028:	00000000 	nop
    102c:	00621021 	addu	v0,v1,v0
    1030:	80420000 	lb	v0,0(v0)
    1034:	00000000 	nop
    1038:	28420020 	slti	v0,v0,32
    103c:	14400017 	bnez	v0,109c <lcd_puts+0xac>
    1040:	00000000 	nop
    1044:	8fc20010 	lw	v0,16(s8)
    1048:	8fc30028 	lw	v1,40(s8)
    104c:	00000000 	nop
    1050:	00621021 	addu	v0,v1,v0
    1054:	80420000 	lb	v0,0(v0)
    1058:	00000000 	nop
    105c:	00403025 	move	a2,v0
    1060:	8fc50010 	lw	a1,16(s8)
    1064:	8fc40020 	lw	a0,32(s8)
    1068:	0c0003b1 	jal	ec4 <lcd_putc>
    106c:	00000000 	nop
    1070:	8fc20010 	lw	v0,16(s8)
    1074:	00000000 	nop
    1078:	24420001 	addiu	v0,v0,1
    107c:	afc20010 	sw	v0,16(s8)
    1080:	8fc20010 	lw	v0,16(s8)
    1084:	00000000 	nop
    1088:	2842000c 	slti	v0,v0,12
    108c:	1440ffe4 	bnez	v0,1020 <lcd_puts+0x30>
    1090:	00000000 	nop
    1094:	10000002 	b	10a0 <lcd_puts+0xb0>
    1098:	00000000 	nop
    109c:	00000000 	nop
    10a0:	00000000 	nop
    10a4:	03c0e825 	move	sp,s8
    10a8:	8fbf001c 	lw	ra,28(sp)
    10ac:	8fbe0018 	lw	s8,24(sp)
    10b0:	27bd0020 	addiu	sp,sp,32
    10b4:	03e00008 	jr	ra
    10b8:	00000000 	nop

000010bc <kypd_scan>:
    10bc:	27bdffe0 	addiu	sp,sp,-32
    10c0:	afbe001c 	sw	s8,28(sp)
    10c4:	03a0f025 	move	s8,sp
    10c8:	3402ff18 	li	v0,0xff18
    10cc:	afc20010 	sw	v0,16(s8)
    10d0:	8fc20010 	lw	v0,16(s8)
    10d4:	24030007 	li	v1,7
    10d8:	ac430000 	sw	v1,0(v0)
    10dc:	afc00000 	sw	zero,0(s8)
    10e0:	10000005 	b	10f8 <kypd_scan+0x3c>
    10e4:	00000000 	nop
    10e8:	8fc20000 	lw	v0,0(s8)
    10ec:	00000000 	nop
    10f0:	24420001 	addiu	v0,v0,1
    10f4:	afc20000 	sw	v0,0(s8)
    10f8:	8fc20000 	lw	v0,0(s8)
    10fc:	00000000 	nop
    1100:	1840fff9 	blez	v0,10e8 <kypd_scan+0x2c>
    1104:	00000000 	nop
    1108:	8fc20010 	lw	v0,16(s8)
    110c:	00000000 	nop
    1110:	8c420000 	lw	v0,0(v0)
    1114:	00000000 	nop
    1118:	30420080 	andi	v0,v0,0x80
    111c:	14400004 	bnez	v0,1130 <kypd_scan+0x74>
    1120:	00000000 	nop
    1124:	24020001 	li	v0,1
    1128:	100000c2 	b	1434 <kypd_scan+0x378>
    112c:	00000000 	nop
    1130:	8fc20010 	lw	v0,16(s8)
    1134:	00000000 	nop
    1138:	8c420000 	lw	v0,0(v0)
    113c:	00000000 	nop
    1140:	30420040 	andi	v0,v0,0x40
    1144:	14400004 	bnez	v0,1158 <kypd_scan+0x9c>
    1148:	00000000 	nop
    114c:	24020004 	li	v0,4
    1150:	100000b8 	b	1434 <kypd_scan+0x378>
    1154:	00000000 	nop
    1158:	8fc20010 	lw	v0,16(s8)
    115c:	00000000 	nop
    1160:	8c420000 	lw	v0,0(v0)
    1164:	00000000 	nop
    1168:	30420020 	andi	v0,v0,0x20
    116c:	14400004 	bnez	v0,1180 <kypd_scan+0xc4>
    1170:	00000000 	nop
    1174:	24020007 	li	v0,7
    1178:	100000ae 	b	1434 <kypd_scan+0x378>
    117c:	00000000 	nop
    1180:	8fc20010 	lw	v0,16(s8)
    1184:	00000000 	nop
    1188:	8c420000 	lw	v0,0(v0)
    118c:	00000000 	nop
    1190:	30420010 	andi	v0,v0,0x10
    1194:	14400004 	bnez	v0,11a8 <kypd_scan+0xec>
    1198:	00000000 	nop
    119c:	00001025 	move	v0,zero
    11a0:	100000a4 	b	1434 <kypd_scan+0x378>
    11a4:	00000000 	nop
    11a8:	8fc20010 	lw	v0,16(s8)
    11ac:	2403000b 	li	v1,11
    11b0:	ac430000 	sw	v1,0(v0)
    11b4:	afc00004 	sw	zero,4(s8)
    11b8:	10000005 	b	11d0 <kypd_scan+0x114>
    11bc:	00000000 	nop
    11c0:	8fc20004 	lw	v0,4(s8)
    11c4:	00000000 	nop
    11c8:	24420001 	addiu	v0,v0,1
    11cc:	afc20004 	sw	v0,4(s8)
    11d0:	8fc20004 	lw	v0,4(s8)
    11d4:	00000000 	nop
    11d8:	1840fff9 	blez	v0,11c0 <kypd_scan+0x104>
    11dc:	00000000 	nop
    11e0:	8fc20010 	lw	v0,16(s8)
    11e4:	00000000 	nop
    11e8:	8c420000 	lw	v0,0(v0)
    11ec:	00000000 	nop
    11f0:	30420080 	andi	v0,v0,0x80
    11f4:	14400004 	bnez	v0,1208 <kypd_scan+0x14c>
    11f8:	00000000 	nop
    11fc:	24020002 	li	v0,2
    1200:	1000008c 	b	1434 <kypd_scan+0x378>
    1204:	00000000 	nop
    1208:	8fc20010 	lw	v0,16(s8)
    120c:	00000000 	nop
    1210:	8c420000 	lw	v0,0(v0)
    1214:	00000000 	nop
    1218:	30420040 	andi	v0,v0,0x40
    121c:	14400004 	bnez	v0,1230 <kypd_scan+0x174>
    1220:	00000000 	nop
    1224:	24020005 	li	v0,5
    1228:	10000082 	b	1434 <kypd_scan+0x378>
    122c:	00000000 	nop
    1230:	8fc20010 	lw	v0,16(s8)
    1234:	00000000 	nop
    1238:	8c420000 	lw	v0,0(v0)
    123c:	00000000 	nop
    1240:	30420020 	andi	v0,v0,0x20
    1244:	14400004 	bnez	v0,1258 <kypd_scan+0x19c>
    1248:	00000000 	nop
    124c:	24020008 	li	v0,8
    1250:	10000078 	b	1434 <kypd_scan+0x378>
    1254:	00000000 	nop
    1258:	8fc20010 	lw	v0,16(s8)
    125c:	00000000 	nop
    1260:	8c420000 	lw	v0,0(v0)
    1264:	00000000 	nop
    1268:	30420010 	andi	v0,v0,0x10
    126c:	14400004 	bnez	v0,1280 <kypd_scan+0x1c4>
    1270:	00000000 	nop
    1274:	2402000f 	li	v0,15
    1278:	1000006e 	b	1434 <kypd_scan+0x378>
    127c:	00000000 	nop
    1280:	8fc20010 	lw	v0,16(s8)
    1284:	2403000d 	li	v1,13
    1288:	ac430000 	sw	v1,0(v0)
    128c:	afc00008 	sw	zero,8(s8)
    1290:	10000005 	b	12a8 <kypd_scan+0x1ec>
    1294:	00000000 	nop
    1298:	8fc20008 	lw	v0,8(s8)
    129c:	00000000 	nop
    12a0:	24420001 	addiu	v0,v0,1
    12a4:	afc20008 	sw	v0,8(s8)
    12a8:	8fc20008 	lw	v0,8(s8)
    12ac:	00000000 	nop
    12b0:	1840fff9 	blez	v0,1298 <kypd_scan+0x1dc>
    12b4:	00000000 	nop
    12b8:	8fc20010 	lw	v0,16(s8)
    12bc:	00000000 	nop
    12c0:	8c420000 	lw	v0,0(v0)
    12c4:	00000000 	nop
    12c8:	30420080 	andi	v0,v0,0x80
    12cc:	14400004 	bnez	v0,12e0 <kypd_scan+0x224>
    12d0:	00000000 	nop
    12d4:	24020003 	li	v0,3
    12d8:	10000056 	b	1434 <kypd_scan+0x378>
    12dc:	00000000 	nop
    12e0:	8fc20010 	lw	v0,16(s8)
    12e4:	00000000 	nop
    12e8:	8c420000 	lw	v0,0(v0)
    12ec:	00000000 	nop
    12f0:	30420040 	andi	v0,v0,0x40
    12f4:	14400004 	bnez	v0,1308 <kypd_scan+0x24c>
    12f8:	00000000 	nop
    12fc:	24020006 	li	v0,6
    1300:	1000004c 	b	1434 <kypd_scan+0x378>
    1304:	00000000 	nop
    1308:	8fc20010 	lw	v0,16(s8)
    130c:	00000000 	nop
    1310:	8c420000 	lw	v0,0(v0)
    1314:	00000000 	nop
    1318:	30420020 	andi	v0,v0,0x20
    131c:	14400004 	bnez	v0,1330 <kypd_scan+0x274>
    1320:	00000000 	nop
    1324:	24020009 	li	v0,9
    1328:	10000042 	b	1434 <kypd_scan+0x378>
    132c:	00000000 	nop
    1330:	8fc20010 	lw	v0,16(s8)
    1334:	00000000 	nop
    1338:	8c420000 	lw	v0,0(v0)
    133c:	00000000 	nop
    1340:	30420010 	andi	v0,v0,0x10
    1344:	14400004 	bnez	v0,1358 <kypd_scan+0x29c>
    1348:	00000000 	nop
    134c:	2402000e 	li	v0,14
    1350:	10000038 	b	1434 <kypd_scan+0x378>
    1354:	00000000 	nop
    1358:	8fc20010 	lw	v0,16(s8)
    135c:	2403000e 	li	v1,14
    1360:	ac430000 	sw	v1,0(v0)
    1364:	afc0000c 	sw	zero,12(s8)
    1368:	10000005 	b	1380 <kypd_scan+0x2c4>
    136c:	00000000 	nop
    1370:	8fc2000c 	lw	v0,12(s8)
    1374:	00000000 	nop
    1378:	24420001 	addiu	v0,v0,1
    137c:	afc2000c 	sw	v0,12(s8)
    1380:	8fc2000c 	lw	v0,12(s8)
    1384:	00000000 	nop
    1388:	1840fff9 	blez	v0,1370 <kypd_scan+0x2b4>
    138c:	00000000 	nop
    1390:	8fc20010 	lw	v0,16(s8)
    1394:	00000000 	nop
    1398:	8c420000 	lw	v0,0(v0)
    139c:	00000000 	nop
    13a0:	30420080 	andi	v0,v0,0x80
    13a4:	14400004 	bnez	v0,13b8 <kypd_scan+0x2fc>
    13a8:	00000000 	nop
    13ac:	2402000a 	li	v0,10
    13b0:	10000020 	b	1434 <kypd_scan+0x378>
    13b4:	00000000 	nop
    13b8:	8fc20010 	lw	v0,16(s8)
    13bc:	00000000 	nop
    13c0:	8c420000 	lw	v0,0(v0)
    13c4:	00000000 	nop
    13c8:	30420040 	andi	v0,v0,0x40
    13cc:	14400004 	bnez	v0,13e0 <kypd_scan+0x324>
    13d0:	00000000 	nop
    13d4:	2402000b 	li	v0,11
    13d8:	10000016 	b	1434 <kypd_scan+0x378>
    13dc:	00000000 	nop
    13e0:	8fc20010 	lw	v0,16(s8)
    13e4:	00000000 	nop
    13e8:	8c420000 	lw	v0,0(v0)
    13ec:	00000000 	nop
    13f0:	30420020 	andi	v0,v0,0x20
    13f4:	14400004 	bnez	v0,1408 <kypd_scan+0x34c>
    13f8:	00000000 	nop
    13fc:	2402000c 	li	v0,12
    1400:	1000000c 	b	1434 <kypd_scan+0x378>
    1404:	00000000 	nop
    1408:	8fc20010 	lw	v0,16(s8)
    140c:	00000000 	nop
    1410:	8c420000 	lw	v0,0(v0)
    1414:	00000000 	nop
    1418:	30420010 	andi	v0,v0,0x10
    141c:	14400004 	bnez	v0,1430 <kypd_scan+0x374>
    1420:	00000000 	nop
    1424:	2402000d 	li	v0,13
    1428:	10000002 	b	1434 <kypd_scan+0x378>
    142c:	00000000 	nop
    1430:	00001025 	move	v0,zero
    1434:	03c0e825 	move	sp,s8
    1438:	8fbe001c 	lw	s8,28(sp)
    143c:	27bd0020 	addiu	sp,sp,32
    1440:	03e00008 	jr	ra
    1444:	00000000 	nop

00001448 <beep>:
    1448:	27bdffe0 	addiu	sp,sp,-32
    144c:	afbf001c 	sw	ra,28(sp)
    1450:	afbe0018 	sw	s8,24(sp)
    1454:	03a0f025 	move	s8,sp
    1458:	afc40020 	sw	a0,32(s8)
    145c:	3402ff24 	li	v0,0xff24
    1460:	afc20014 	sw	v0,20(s8)
    1464:	8fc20020 	lw	v0,32(s8)
    1468:	00000000 	nop
    146c:	2c420009 	sltiu	v0,v0,9
    1470:	1040002a 	beqz	v0,151c <beep+0xd4>
    1474:	00000000 	nop
    1478:	8fc20020 	lw	v0,32(s8)
    147c:	00000000 	nop
    1480:	00021880 	sll	v1,v0,0x2
    1484:	3c020000 	lui	v0,0x0
    1488:	24421a74 	addiu	v0,v0,6772
    148c:	00621021 	addu	v0,v1,v0
    1490:	8c420000 	lw	v0,0(v0)
    1494:	00000000 	nop
    1498:	00400008 	jr	v0
    149c:	00000000 	nop
    14a0:	240233f8 	li	v0,13304
    14a4:	afc20010 	sw	v0,16(s8)
    14a8:	1000001c 	b	151c <beep+0xd4>
    14ac:	00000000 	nop
    14b0:	24022e4b 	li	v0,11851
    14b4:	afc20010 	sw	v0,16(s8)
    14b8:	10000018 	b	151c <beep+0xd4>
    14bc:	00000000 	nop
    14c0:	2402293a 	li	v0,10554
    14c4:	afc20010 	sw	v0,16(s8)
    14c8:	10000014 	b	151c <beep+0xd4>
    14cc:	00000000 	nop
    14d0:	240226dd 	li	v0,9949
    14d4:	afc20010 	sw	v0,16(s8)
    14d8:	10000010 	b	151c <beep+0xd4>
    14dc:	00000000 	nop
    14e0:	240222b0 	li	v0,8880
    14e4:	afc20010 	sw	v0,16(s8)
    14e8:	1000000c 	b	151c <beep+0xd4>
    14ec:	00000000 	nop
    14f0:	24021ed3 	li	v0,7891
    14f4:	afc20010 	sw	v0,16(s8)
    14f8:	10000008 	b	151c <beep+0xd4>
    14fc:	00000000 	nop
    1500:	24021b75 	li	v0,7029
    1504:	afc20010 	sw	v0,16(s8)
    1508:	10000004 	b	151c <beep+0xd4>
    150c:	00000000 	nop
    1510:	240219ef 	li	v0,6639
    1514:	afc20010 	sw	v0,16(s8)
    1518:	00000000 	nop
    151c:	8fc20014 	lw	v0,20(s8)
    1520:	24030001 	li	v1,1
    1524:	ac430000 	sw	v1,0(v0)
    1528:	8fc40010 	lw	a0,16(s8)
    152c:	0c000293 	jal	a4c <lcd_wait>
    1530:	00000000 	nop
    1534:	8fc20014 	lw	v0,20(s8)
    1538:	00000000 	nop
    153c:	ac400000 	sw	zero,0(v0)
    1540:	8fc40010 	lw	a0,16(s8)
    1544:	0c000293 	jal	a4c <lcd_wait>
    1548:	00000000 	nop
    154c:	00000000 	nop
    1550:	03c0e825 	move	sp,s8
    1554:	8fbf001c 	lw	ra,28(sp)
    1558:	8fbe0018 	lw	s8,24(sp)
    155c:	27bd0020 	addiu	sp,sp,32
    1560:	03e00008 	jr	ra
    1564:	00000000 	nop

00001568 <play_song>:
    1568:	27bdffc8 	addiu	sp,sp,-56
    156c:	afbf0034 	sw	ra,52(sp)
    1570:	afbe0030 	sw	s8,48(sp)
    1574:	03a0f025 	move	s8,sp
    1578:	afc00010 	sw	zero,16(s8)
    157c:	10000008 	b	15a0 <play_song+0x38>
    1580:	00000000 	nop
    1584:	24040001 	li	a0,1
    1588:	0c000512 	jal	1448 <beep>
    158c:	00000000 	nop
    1590:	8fc20010 	lw	v0,16(s8)
    1594:	00000000 	nop
    1598:	24420001 	addiu	v0,v0,1
    159c:	afc20010 	sw	v0,16(s8)
    15a0:	8fc20010 	lw	v0,16(s8)
    15a4:	00000000 	nop
    15a8:	284200fa 	slti	v0,v0,250
    15ac:	1440fff5 	bnez	v0,1584 <play_song+0x1c>
    15b0:	00000000 	nop
    15b4:	afc00014 	sw	zero,20(s8)
    15b8:	10000008 	b	15dc <play_song+0x74>
    15bc:	00000000 	nop
    15c0:	24040002 	li	a0,2
    15c4:	0c000512 	jal	1448 <beep>
    15c8:	00000000 	nop
    15cc:	8fc20014 	lw	v0,20(s8)
    15d0:	00000000 	nop
    15d4:	24420001 	addiu	v0,v0,1
    15d8:	afc20014 	sw	v0,20(s8)
    15dc:	8fc20014 	lw	v0,20(s8)
    15e0:	00000000 	nop
    15e4:	284200fa 	slti	v0,v0,250
    15e8:	1440fff5 	bnez	v0,15c0 <play_song+0x58>
    15ec:	00000000 	nop
    15f0:	afc00018 	sw	zero,24(s8)
    15f4:	10000008 	b	1618 <play_song+0xb0>
    15f8:	00000000 	nop
    15fc:	24040003 	li	a0,3
    1600:	0c000512 	jal	1448 <beep>
    1604:	00000000 	nop
    1608:	8fc20018 	lw	v0,24(s8)
    160c:	00000000 	nop
    1610:	24420001 	addiu	v0,v0,1
    1614:	afc20018 	sw	v0,24(s8)
    1618:	8fc20018 	lw	v0,24(s8)
    161c:	00000000 	nop
    1620:	284200fa 	slti	v0,v0,250
    1624:	1440fff5 	bnez	v0,15fc <play_song+0x94>
    1628:	00000000 	nop
    162c:	afc0001c 	sw	zero,28(s8)
    1630:	10000008 	b	1654 <play_song+0xec>
    1634:	00000000 	nop
    1638:	24040004 	li	a0,4
    163c:	0c000512 	jal	1448 <beep>
    1640:	00000000 	nop
    1644:	8fc2001c 	lw	v0,28(s8)
    1648:	00000000 	nop
    164c:	24420001 	addiu	v0,v0,1
    1650:	afc2001c 	sw	v0,28(s8)
    1654:	8fc2001c 	lw	v0,28(s8)
    1658:	00000000 	nop
    165c:	284200fa 	slti	v0,v0,250
    1660:	1440fff5 	bnez	v0,1638 <play_song+0xd0>
    1664:	00000000 	nop
    1668:	afc00020 	sw	zero,32(s8)
    166c:	10000008 	b	1690 <play_song+0x128>
    1670:	00000000 	nop
    1674:	24040005 	li	a0,5
    1678:	0c000512 	jal	1448 <beep>
    167c:	00000000 	nop
    1680:	8fc20020 	lw	v0,32(s8)
    1684:	00000000 	nop
    1688:	24420001 	addiu	v0,v0,1
    168c:	afc20020 	sw	v0,32(s8)
    1690:	8fc20020 	lw	v0,32(s8)
    1694:	00000000 	nop
    1698:	284200fa 	slti	v0,v0,250
    169c:	1440fff5 	bnez	v0,1674 <play_song+0x10c>
    16a0:	00000000 	nop
    16a4:	afc00024 	sw	zero,36(s8)
    16a8:	10000008 	b	16cc <play_song+0x164>
    16ac:	00000000 	nop
    16b0:	24040006 	li	a0,6
    16b4:	0c000512 	jal	1448 <beep>
    16b8:	00000000 	nop
    16bc:	8fc20024 	lw	v0,36(s8)
    16c0:	00000000 	nop
    16c4:	24420001 	addiu	v0,v0,1
    16c8:	afc20024 	sw	v0,36(s8)
    16cc:	8fc20024 	lw	v0,36(s8)
    16d0:	00000000 	nop
    16d4:	284200fa 	slti	v0,v0,250
    16d8:	1440fff5 	bnez	v0,16b0 <play_song+0x148>
    16dc:	00000000 	nop
    16e0:	afc00028 	sw	zero,40(s8)
    16e4:	10000008 	b	1708 <play_song+0x1a0>
    16e8:	00000000 	nop
    16ec:	24040007 	li	a0,7
    16f0:	0c000512 	jal	1448 <beep>
    16f4:	00000000 	nop
    16f8:	8fc20028 	lw	v0,40(s8)
    16fc:	00000000 	nop
    1700:	24420001 	addiu	v0,v0,1
    1704:	afc20028 	sw	v0,40(s8)
    1708:	8fc20028 	lw	v0,40(s8)
    170c:	00000000 	nop
    1710:	284200fa 	slti	v0,v0,250
    1714:	1440fff5 	bnez	v0,16ec <play_song+0x184>
    1718:	00000000 	nop
    171c:	afc0002c 	sw	zero,44(s8)
    1720:	10000008 	b	1744 <play_song+0x1dc>
    1724:	00000000 	nop
    1728:	24040008 	li	a0,8
    172c:	0c000512 	jal	1448 <beep>
    1730:	00000000 	nop
    1734:	8fc2002c 	lw	v0,44(s8)
    1738:	00000000 	nop
    173c:	24420001 	addiu	v0,v0,1
    1740:	afc2002c 	sw	v0,44(s8)
    1744:	8fc2002c 	lw	v0,44(s8)
    1748:	00000000 	nop
    174c:	284200fa 	slti	v0,v0,250
    1750:	1440fff5 	bnez	v0,1728 <play_song+0x1c0>
    1754:	00000000 	nop
    1758:	00000000 	nop
    175c:	03c0e825 	move	sp,s8
    1760:	8fbf0034 	lw	ra,52(sp)
    1764:	8fbe0030 	lw	s8,48(sp)
    1768:	27bd0038 	addiu	sp,sp,56
    176c:	03e00008 	jr	ra
    1770:	00000000 	nop

セクション .rodata の逆アセンブル:

00001774 <font8x8>:
    1774:	00000000 	nop
    1778:	00000000 	nop
    177c:	0000005f 	0x5f
    1780:	00000000 	nop
    1784:	00000300 	sll	zero,zero,0xc
    1788:	03000000 	0x3000000
    178c:	643c2664 	0x643c2664
    1790:	3c262400 	0x3c262400
    1794:	2649497f 	addiu	t1,s2,18815
    1798:	49493200 	0x49493200
    179c:	42251208 	c0	0x251208
    17a0:	24522100 	addiu	s2,v0,8448
    17a4:	20504e55 	addi	s0,v0,20053
    17a8:	22582800 	addi	t8,s2,10240
    17ac:	00000003 	sra	zero,zero,0x0
    17b0:	00000000 	nop
    17b4:	00001c22 	0x1c22
    17b8:	41000000 	bc0f	17bc <font8x8+0x48>
    17bc:	00000041 	0x41
    17c0:	221c0000 	addi	gp,s0,0
    17c4:	0015150e 	0x15150e
    17c8:	0e151500 	jal	8545400 <lcd_vbuf+0x8543950>
    17cc:	0008083e 	0x8083e
    17d0:	08080000 	j	200000 <lcd_vbuf+0x1fe550>
    17d4:	00000050 	0x50
    17d8:	30000000 	andi	zero,zero,0x0
    17dc:	00080808 	0x80808
    17e0:	08080000 	j	200000 <lcd_vbuf+0x1fe550>
    17e4:	00000040 	ssnop
    17e8:	00000000 	nop
    17ec:	40201008 	0x40201008
    17f0:	04020100 	0x4020100
    17f4:	003e4141 	0x3e4141
    17f8:	413e0000 	0x413e0000
    17fc:	0000417f 	0x417f
    1800:	40000000 	mfc0	zero,c0_index
    1804:	00426151 	0x426151
    1808:	496e0000 	0x496e0000
    180c:	00224149 	0x224149
    1810:	49360000 	0x49360000
    1814:	00181412 	0x181412
    1818:	7f100000 	0x7f100000
    181c:	00274949 	0x274949
    1820:	49710000 	0x49710000
    1824:	003c4a49 	0x3c4a49
    1828:	48700000 	0x48700000
    182c:	00432111 	0x432111
    1830:	0d030000 	jal	40c0000 <lcd_vbuf+0x40be550>
    1834:	00364949 	0x364949
    1838:	49360000 	0x49360000
    183c:	00060949 	0x60949
    1840:	291e0000 	slti	s8,t0,0
    1844:	00000012 	mflo	zero
    1848:	00000000 	nop
    184c:	00000052 	0x52
    1850:	30000000 	andi	zero,zero,0x0
    1854:	00000814 	0x814
    1858:	14220000 	bne	at,v0,185c <font8x8+0xe8>
    185c:	00141414 	0x141414
    1860:	14141400 	bne	zero,s4,6864 <lcd_vbuf+0x4db4>
    1864:	00002214 	0x2214
    1868:	14080000 	bne	zero,t0,186c <font8x8+0xf8>
    186c:	00020159 	0x20159
    1870:	05020000 	0x5020000
    1874:	3e415d55 	0x3e415d55
    1878:	4d512e00 	0x4d512e00
    187c:	407c4a09 	0x407c4a09
    1880:	4a7c4000 	c2	0x7c4000
    1884:	417f4949 	0x417f4949
    1888:	49493600 	0x49493600
    188c:	1c224141 	0x1c224141
    1890:	41412200 	0x41412200
    1894:	417f4141 	0x417f4141
    1898:	41221c00 	0x41221c00
    189c:	417f4949 	0x417f4949
    18a0:	5d416300 	0x5d416300
    18a4:	417f4909 	0x417f4909
    18a8:	1d010300 	0x1d010300
    18ac:	1c224149 	0x1c224149
    18b0:	493a0800 	0x493a0800
    18b4:	417f0808 	0x417f0808
    18b8:	087f4100 	j	1fd0400 <lcd_vbuf+0x1fce950>
    18bc:	0041417f 	0x41417f
    18c0:	41410000 	0x41410000
    18c4:	30404141 	andi	zero,v0,0x4141
    18c8:	3f010100 	0x3f010100
    18cc:	417f080c 	0x417f080c
    18d0:	12614100 	beq	s3,at,11cd4 <lcd_vbuf+0x10224>
    18d4:	417f4140 	0x417f4140
    18d8:	40406000 	cfc0	zero,c0_sr
    18dc:	417f420c 	0x417f420c
    18e0:	427f4100 	c0	0x7f4100
    18e4:	417f420c 	0x417f420c
    18e8:	117f0100 	beq	t3,ra,1cec <lcd_vbuf+0x23c>
    18ec:	1c224141 	0x1c224141
    18f0:	41221c00 	0x41221c00
    18f4:	417f4909 	0x417f4909
    18f8:	09090600 	j	4241800 <lcd_vbuf+0x423fd50>
    18fc:	0c122121 	jal	488484 <lcd_vbuf+0x4869d4>
    1900:	61524c00 	0x61524c00
    1904:	417f0909 	0x417f0909
    1908:	19694600 	0x19694600
    190c:	66494949 	0x66494949
    1910:	49493300 	0x49493300
    1914:	0301417f 	0x301417f
    1918:	41010300 	bc0t	251c <lcd_vbuf+0xa6c>
    191c:	013f4140 	0x13f4140
    1920:	413f0100 	0x413f0100
    1924:	010f3140 	0x10f3140
    1928:	310f0100 	andi	t7,t0,0x100
    192c:	011f6114 	0x11f6114
    1930:	611f0100 	0x611f0100
    1934:	41413608 	0x41413608
    1938:	36414100 	ori	at,s2,0x4100
    193c:	01034478 	0x1034478
    1940:	44030100 	0x44030100
    1944:	43615149 	c0	0x1615149
    1948:	45436100 	0x45436100
    194c:	00007f41 	0x7f41
    1950:	41000000 	bc0f	1954 <font8x8+0x1e0>
    1954:	01020408 	0x1020408
    1958:	10204000 	beqz	at,1195c <lcd_vbuf+0xfeac>
    195c:	00004141 	0x4141
    1960:	7f000000 	0x7f000000
    1964:	00040201 	0x40201
    1968:	01020400 	0x1020400
    196c:	00404040 	0x404040
    1970:	40404000 	cfc0	zero,c0_badvaddr
    1974:	00010200 	sll	zero,at,0x8
    1978:	00000000 	nop
    197c:	00344a4a 	0x344a4a
    1980:	4a3c4000 	c2	0x3c4000
    1984:	00413f48 	0x413f48
    1988:	48483000 	cfc2	t0,$6
    198c:	003c4242 	0x3c4242
    1990:	42240000 	c0	0x240000
    1994:	00304848 	0x304848
    1998:	493f4000 	0x493f4000
    199c:	003c4a4a 	0x3c4a4a
    19a0:	4a2c0000 	c2	0x2c0000
    19a4:	0000487e 	0x487e
    19a8:	49090000 	0x49090000
    19ac:	00264949 	0x264949
    19b0:	493f0100 	0x493f0100
    19b4:	417f4804 	0x417f4804
    19b8:	44784000 	0x44784000
    19bc:	0000447d 	0x447d
    19c0:	40000000 	mfc0	zero,c0_index
    19c4:	00004044 	0x4044
    19c8:	3d000000 	0x3d000000
    19cc:	417f1018 	0x417f1018
    19d0:	24424200 	addiu	v0,v0,16896
    19d4:	0040417f 	0x40417f
    19d8:	40400000 	cfc0	zero,c0_index
    19dc:	427e027c 	c0	0x7e027c
    19e0:	027e4000 	0x27e4000
    19e4:	427e4402 	c0	0x7e4402
    19e8:	427c4000 	c0	0x7c4000
    19ec:	003c4242 	0x3c4242
    19f0:	423c0000 	c0	0x3c0000
    19f4:	00417f49 	0x417f49
    19f8:	09090600 	j	4241800 <lcd_vbuf+0x423fd50>
    19fc:	00060909 	0x60909
    1a00:	497f4100 	0x497f4100
    1a04:	00427e44 	0x427e44
    1a08:	02020400 	0x2020400
    1a0c:	00644a4a 	0x644a4a
    1a10:	4a360000 	c2	0x360000
    1a14:	00043f44 	0x43f44
    1a18:	44200000 	0x44200000
    1a1c:	00023e40 	sll	a3,v0,0x19
    1a20:	40227e40 	0x40227e40
    1a24:	020e3240 	0x20e3240
    1a28:	320e0200 	andi	t6,s0,0x200
    1a2c:	021e6218 	0x21e6218
    1a30:	621e0200 	0x621e0200
    1a34:	42621408 	c0	0x621408
    1a38:	14624200 	bne	v1,v0,1223c <lcd_vbuf+0x1078c>
    1a3c:	01434538 	0x1434538
    1a40:	05030100 	0x5030100
    1a44:	00466252 	0x466252
    1a48:	4a466200 	c2	0x466200
    1a4c:	00000836 	0x836
    1a50:	41000000 	bc0f	1a54 <font8x8+0x2e0>
    1a54:	0000007f 	0x7f
    1a58:	00000000 	nop
    1a5c:	00000041 	0x41
    1a60:	36080000 	ori	t0,s0,0x0
    1a64:	00180808 	0x180808
    1a68:	10101800 	beq	zero,s0,7a6c <lcd_vbuf+0x5fbc>
    1a6c:	aa55aa55 	swl	s5,-21931(s2)
    1a70:	aa55aa55 	swl	s5,-21931(s2)
    1a74:	0000151c 	0x151c
    1a78:	000014a0 	0x14a0
    1a7c:	000014b0 	0x14b0
    1a80:	000014c0 	sll	v0,zero,0x13
    1a84:	000014d0 	0x14d0
    1a88:	000014e0 	0x14e0
    1a8c:	000014f0 	0x14f0
    1a90:	00001500 	sll	v0,zero,0x14
    1a94:	00001510 	0x1510

セクション .data の逆アセンブル:

00001a98 <posy>:
    1a98:	00000003 	sra	zero,zero,0x0

セクション .bss の逆アセンブル:

00001a9c <state>:
    1a9c:	00000000 	nop

00001aa0 <posx>:
    1aa0:	00000000 	nop

00001aa4 <p1_pos>:
    1aa4:	00000000 	nop

00001aa8 <p2_pos>:
    1aa8:	00000000 	nop

00001aac <cnt.1445>:
    1aac:	00000000 	nop

00001ab0 <lcd_vbuf>:
    1ab0:	00000000 	nop
    1ab4:	00000000 	nop
    1ab8:	00000000 	nop
    1abc:	00000000 	nop
    1ac0:	00000000 	nop
    1ac4:	00000000 	nop
    1ac8:	00000000 	nop
    1acc:	00000000 	nop
    1ad0:	00000000 	nop
    1ad4:	00000000 	nop
    1ad8:	00000000 	nop
    1adc:	00000000 	nop
    1ae0:	00000000 	nop
    1ae4:	00000000 	nop
    1ae8:	00000000 	nop
    1aec:	00000000 	nop
    1af0:	00000000 	nop
    1af4:	00000000 	nop
    1af8:	00000000 	nop
    1afc:	00000000 	nop
    1b00:	00000000 	nop
    1b04:	00000000 	nop
    1b08:	00000000 	nop
    1b0c:	00000000 	nop
    1b10:	00000000 	nop
    1b14:	00000000 	nop
    1b18:	00000000 	nop
    1b1c:	00000000 	nop
    1b20:	00000000 	nop
    1b24:	00000000 	nop
    1b28:	00000000 	nop
    1b2c:	00000000 	nop
    1b30:	00000000 	nop
    1b34:	00000000 	nop
    1b38:	00000000 	nop
    1b3c:	00000000 	nop
    1b40:	00000000 	nop
    1b44:	00000000 	nop
    1b48:	00000000 	nop
    1b4c:	00000000 	nop
    1b50:	00000000 	nop
    1b54:	00000000 	nop
    1b58:	00000000 	nop
    1b5c:	00000000 	nop
    1b60:	00000000 	nop
    1b64:	00000000 	nop
    1b68:	00000000 	nop
    1b6c:	00000000 	nop
    1b70:	00000000 	nop
    1b74:	00000000 	nop
    1b78:	00000000 	nop
    1b7c:	00000000 	nop
    1b80:	00000000 	nop
    1b84:	00000000 	nop
    1b88:	00000000 	nop
    1b8c:	00000000 	nop
    1b90:	00000000 	nop
    1b94:	00000000 	nop
    1b98:	00000000 	nop
    1b9c:	00000000 	nop
    1ba0:	00000000 	nop
    1ba4:	00000000 	nop
    1ba8:	00000000 	nop
    1bac:	00000000 	nop
    1bb0:	00000000 	nop
    1bb4:	00000000 	nop
    1bb8:	00000000 	nop
    1bbc:	00000000 	nop
    1bc0:	00000000 	nop
    1bc4:	00000000 	nop
    1bc8:	00000000 	nop
    1bcc:	00000000 	nop
    1bd0:	00000000 	nop
    1bd4:	00000000 	nop
    1bd8:	00000000 	nop
    1bdc:	00000000 	nop
    1be0:	00000000 	nop
    1be4:	00000000 	nop
    1be8:	00000000 	nop
    1bec:	00000000 	nop
    1bf0:	00000000 	nop
    1bf4:	00000000 	nop
    1bf8:	00000000 	nop
    1bfc:	00000000 	nop
    1c00:	00000000 	nop
    1c04:	00000000 	nop
    1c08:	00000000 	nop
    1c0c:	00000000 	nop
    1c10:	00000000 	nop
    1c14:	00000000 	nop
    1c18:	00000000 	nop
    1c1c:	00000000 	nop
    1c20:	00000000 	nop
    1c24:	00000000 	nop
    1c28:	00000000 	nop
    1c2c:	00000000 	nop
    1c30:	00000000 	nop
    1c34:	00000000 	nop
    1c38:	00000000 	nop
    1c3c:	00000000 	nop
    1c40:	00000000 	nop
    1c44:	00000000 	nop
    1c48:	00000000 	nop
    1c4c:	00000000 	nop
    1c50:	00000000 	nop
    1c54:	00000000 	nop
    1c58:	00000000 	nop
    1c5c:	00000000 	nop
    1c60:	00000000 	nop
    1c64:	00000000 	nop
    1c68:	00000000 	nop
    1c6c:	00000000 	nop
    1c70:	00000000 	nop
    1c74:	00000000 	nop
    1c78:	00000000 	nop
    1c7c:	00000000 	nop
    1c80:	00000000 	nop
    1c84:	00000000 	nop
    1c88:	00000000 	nop
    1c8c:	00000000 	nop
    1c90:	00000000 	nop
    1c94:	00000000 	nop
    1c98:	00000000 	nop
    1c9c:	00000000 	nop
    1ca0:	00000000 	nop
    1ca4:	00000000 	nop
    1ca8:	00000000 	nop
    1cac:	00000000 	nop
    1cb0:	00000000 	nop
    1cb4:	00000000 	nop
    1cb8:	00000000 	nop
    1cbc:	00000000 	nop
    1cc0:	00000000 	nop
    1cc4:	00000000 	nop
    1cc8:	00000000 	nop
    1ccc:	00000000 	nop
    1cd0:	00000000 	nop
    1cd4:	00000000 	nop
    1cd8:	00000000 	nop
    1cdc:	00000000 	nop
    1ce0:	00000000 	nop
    1ce4:	00000000 	nop
    1ce8:	00000000 	nop
    1cec:	00000000 	nop
    1cf0:	00000000 	nop
    1cf4:	00000000 	nop
    1cf8:	00000000 	nop
    1cfc:	00000000 	nop
    1d00:	00000000 	nop
    1d04:	00000000 	nop
    1d08:	00000000 	nop
    1d0c:	00000000 	nop
    1d10:	00000000 	nop
    1d14:	00000000 	nop
    1d18:	00000000 	nop
    1d1c:	00000000 	nop
    1d20:	00000000 	nop
    1d24:	00000000 	nop
    1d28:	00000000 	nop
    1d2c:	00000000 	nop
    1d30:	00000000 	nop
    1d34:	00000000 	nop
    1d38:	00000000 	nop
    1d3c:	00000000 	nop
    1d40:	00000000 	nop
    1d44:	00000000 	nop
    1d48:	00000000 	nop
    1d4c:	00000000 	nop
    1d50:	00000000 	nop
    1d54:	00000000 	nop
    1d58:	00000000 	nop
    1d5c:	00000000 	nop
    1d60:	00000000 	nop
    1d64:	00000000 	nop
    1d68:	00000000 	nop
    1d6c:	00000000 	nop
    1d70:	00000000 	nop
    1d74:	00000000 	nop
    1d78:	00000000 	nop
    1d7c:	00000000 	nop
    1d80:	00000000 	nop
    1d84:	00000000 	nop
    1d88:	00000000 	nop
    1d8c:	00000000 	nop
    1d90:	00000000 	nop
    1d94:	00000000 	nop
    1d98:	00000000 	nop
    1d9c:	00000000 	nop
    1da0:	00000000 	nop
    1da4:	00000000 	nop
    1da8:	00000000 	nop
    1dac:	00000000 	nop
    1db0:	00000000 	nop
    1db4:	00000000 	nop
    1db8:	00000000 	nop
    1dbc:	00000000 	nop
    1dc0:	00000000 	nop
    1dc4:	00000000 	nop
    1dc8:	00000000 	nop
    1dcc:	00000000 	nop
    1dd0:	00000000 	nop
    1dd4:	00000000 	nop
    1dd8:	00000000 	nop
    1ddc:	00000000 	nop
    1de0:	00000000 	nop
    1de4:	00000000 	nop
    1de8:	00000000 	nop
    1dec:	00000000 	nop
    1df0:	00000000 	nop
    1df4:	00000000 	nop
    1df8:	00000000 	nop
    1dfc:	00000000 	nop
    1e00:	00000000 	nop
    1e04:	00000000 	nop
    1e08:	00000000 	nop
    1e0c:	00000000 	nop
    1e10:	00000000 	nop
    1e14:	00000000 	nop
    1e18:	00000000 	nop
    1e1c:	00000000 	nop
    1e20:	00000000 	nop
    1e24:	00000000 	nop
    1e28:	00000000 	nop
    1e2c:	00000000 	nop
    1e30:	00000000 	nop
    1e34:	00000000 	nop
    1e38:	00000000 	nop
    1e3c:	00000000 	nop
    1e40:	00000000 	nop
    1e44:	00000000 	nop
    1e48:	00000000 	nop
    1e4c:	00000000 	nop
    1e50:	00000000 	nop
    1e54:	00000000 	nop
    1e58:	00000000 	nop
    1e5c:	00000000 	nop
    1e60:	00000000 	nop
    1e64:	00000000 	nop
    1e68:	00000000 	nop
    1e6c:	00000000 	nop
    1e70:	00000000 	nop
    1e74:	00000000 	nop
    1e78:	00000000 	nop
    1e7c:	00000000 	nop
    1e80:	00000000 	nop
    1e84:	00000000 	nop
    1e88:	00000000 	nop
    1e8c:	00000000 	nop
    1e90:	00000000 	nop
    1e94:	00000000 	nop
    1e98:	00000000 	nop
    1e9c:	00000000 	nop
    1ea0:	00000000 	nop
    1ea4:	00000000 	nop
    1ea8:	00000000 	nop
    1eac:	00000000 	nop
    1eb0:	00000000 	nop
    1eb4:	00000000 	nop
    1eb8:	00000000 	nop
    1ebc:	00000000 	nop
    1ec0:	00000000 	nop
    1ec4:	00000000 	nop
    1ec8:	00000000 	nop
    1ecc:	00000000 	nop
    1ed0:	00000000 	nop
    1ed4:	00000000 	nop
    1ed8:	00000000 	nop
    1edc:	00000000 	nop
    1ee0:	00000000 	nop
    1ee4:	00000000 	nop
    1ee8:	00000000 	nop
    1eec:	00000000 	nop
    1ef0:	00000000 	nop
    1ef4:	00000000 	nop
    1ef8:	00000000 	nop
    1efc:	00000000 	nop
    1f00:	00000000 	nop
    1f04:	00000000 	nop
    1f08:	00000000 	nop
    1f0c:	00000000 	nop
    1f10:	00000000 	nop
    1f14:	00000000 	nop
    1f18:	00000000 	nop
    1f1c:	00000000 	nop
    1f20:	00000000 	nop
    1f24:	00000000 	nop
    1f28:	00000000 	nop
    1f2c:	00000000 	nop
    1f30:	00000000 	nop
    1f34:	00000000 	nop
    1f38:	00000000 	nop
    1f3c:	00000000 	nop
    1f40:	00000000 	nop
    1f44:	00000000 	nop
    1f48:	00000000 	nop
    1f4c:	00000000 	nop
    1f50:	00000000 	nop
    1f54:	00000000 	nop
    1f58:	00000000 	nop
    1f5c:	00000000 	nop
    1f60:	00000000 	nop
    1f64:	00000000 	nop
    1f68:	00000000 	nop
    1f6c:	00000000 	nop
    1f70:	00000000 	nop
    1f74:	00000000 	nop
    1f78:	00000000 	nop
    1f7c:	00000000 	nop
    1f80:	00000000 	nop
    1f84:	00000000 	nop
    1f88:	00000000 	nop
    1f8c:	00000000 	nop
    1f90:	00000000 	nop
    1f94:	00000000 	nop
    1f98:	00000000 	nop
    1f9c:	00000000 	nop
    1fa0:	00000000 	nop
    1fa4:	00000000 	nop
    1fa8:	00000000 	nop
    1fac:	00000000 	nop
    1fb0:	00000000 	nop
    1fb4:	00000000 	nop
    1fb8:	00000000 	nop
    1fbc:	00000000 	nop
    1fc0:	00000000 	nop
    1fc4:	00000000 	nop
    1fc8:	00000000 	nop
    1fcc:	00000000 	nop
    1fd0:	00000000 	nop
    1fd4:	00000000 	nop
    1fd8:	00000000 	nop
    1fdc:	00000000 	nop
    1fe0:	00000000 	nop
    1fe4:	00000000 	nop
    1fe8:	00000000 	nop
    1fec:	00000000 	nop
    1ff0:	00000000 	nop
    1ff4:	00000000 	nop
    1ff8:	00000000 	nop
    1ffc:	00000000 	nop
    2000:	00000000 	nop
    2004:	00000000 	nop
    2008:	00000000 	nop
    200c:	00000000 	nop
    2010:	00000000 	nop
    2014:	00000000 	nop
    2018:	00000000 	nop
    201c:	00000000 	nop
    2020:	00000000 	nop
    2024:	00000000 	nop
    2028:	00000000 	nop
    202c:	00000000 	nop
    2030:	00000000 	nop
    2034:	00000000 	nop
    2038:	00000000 	nop
    203c:	00000000 	nop
    2040:	00000000 	nop
    2044:	00000000 	nop
    2048:	00000000 	nop
    204c:	00000000 	nop
    2050:	00000000 	nop
    2054:	00000000 	nop
    2058:	00000000 	nop
    205c:	00000000 	nop
    2060:	00000000 	nop
    2064:	00000000 	nop
    2068:	00000000 	nop
    206c:	00000000 	nop
    2070:	00000000 	nop
    2074:	00000000 	nop
    2078:	00000000 	nop
    207c:	00000000 	nop
    2080:	00000000 	nop
    2084:	00000000 	nop
    2088:	00000000 	nop
    208c:	00000000 	nop
    2090:	00000000 	nop
    2094:	00000000 	nop
    2098:	00000000 	nop
    209c:	00000000 	nop
    20a0:	00000000 	nop
    20a4:	00000000 	nop
    20a8:	00000000 	nop
    20ac:	00000000 	nop
    20b0:	00000000 	nop
    20b4:	00000000 	nop
    20b8:	00000000 	nop
    20bc:	00000000 	nop
    20c0:	00000000 	nop
    20c4:	00000000 	nop
    20c8:	00000000 	nop
    20cc:	00000000 	nop
    20d0:	00000000 	nop
    20d4:	00000000 	nop
    20d8:	00000000 	nop
    20dc:	00000000 	nop
    20e0:	00000000 	nop
    20e4:	00000000 	nop
    20e8:	00000000 	nop
    20ec:	00000000 	nop
    20f0:	00000000 	nop
    20f4:	00000000 	nop
    20f8:	00000000 	nop
    20fc:	00000000 	nop
    2100:	00000000 	nop
    2104:	00000000 	nop
    2108:	00000000 	nop
    210c:	00000000 	nop
    2110:	00000000 	nop
    2114:	00000000 	nop
    2118:	00000000 	nop
    211c:	00000000 	nop
    2120:	00000000 	nop
    2124:	00000000 	nop
    2128:	00000000 	nop
    212c:	00000000 	nop
    2130:	00000000 	nop
    2134:	00000000 	nop
    2138:	00000000 	nop
    213c:	00000000 	nop
    2140:	00000000 	nop
    2144:	00000000 	nop
    2148:	00000000 	nop
    214c:	00000000 	nop
    2150:	00000000 	nop
    2154:	00000000 	nop
    2158:	00000000 	nop
    215c:	00000000 	nop
    2160:	00000000 	nop
    2164:	00000000 	nop
    2168:	00000000 	nop
    216c:	00000000 	nop
    2170:	00000000 	nop
    2174:	00000000 	nop
    2178:	00000000 	nop
    217c:	00000000 	nop
    2180:	00000000 	nop
    2184:	00000000 	nop
    2188:	00000000 	nop
    218c:	00000000 	nop
    2190:	00000000 	nop
    2194:	00000000 	nop
    2198:	00000000 	nop
    219c:	00000000 	nop
    21a0:	00000000 	nop
    21a4:	00000000 	nop
    21a8:	00000000 	nop
    21ac:	00000000 	nop
    21b0:	00000000 	nop
    21b4:	00000000 	nop
    21b8:	00000000 	nop
    21bc:	00000000 	nop
    21c0:	00000000 	nop
    21c4:	00000000 	nop
    21c8:	00000000 	nop
    21cc:	00000000 	nop
    21d0:	00000000 	nop
    21d4:	00000000 	nop
    21d8:	00000000 	nop
    21dc:	00000000 	nop
    21e0:	00000000 	nop
    21e4:	00000000 	nop
    21e8:	00000000 	nop
    21ec:	00000000 	nop
    21f0:	00000000 	nop
    21f4:	00000000 	nop
    21f8:	00000000 	nop
    21fc:	00000000 	nop
    2200:	00000000 	nop
    2204:	00000000 	nop
    2208:	00000000 	nop
    220c:	00000000 	nop
    2210:	00000000 	nop
    2214:	00000000 	nop
    2218:	00000000 	nop
    221c:	00000000 	nop
    2220:	00000000 	nop
    2224:	00000000 	nop
    2228:	00000000 	nop
    222c:	00000000 	nop
    2230:	00000000 	nop
    2234:	00000000 	nop
    2238:	00000000 	nop
    223c:	00000000 	nop
    2240:	00000000 	nop
    2244:	00000000 	nop
    2248:	00000000 	nop
    224c:	00000000 	nop
    2250:	00000000 	nop
    2254:	00000000 	nop
    2258:	00000000 	nop
    225c:	00000000 	nop
    2260:	00000000 	nop
    2264:	00000000 	nop
    2268:	00000000 	nop
    226c:	00000000 	nop
    2270:	00000000 	nop
    2274:	00000000 	nop
    2278:	00000000 	nop
    227c:	00000000 	nop
    2280:	00000000 	nop
    2284:	00000000 	nop
    2288:	00000000 	nop
    228c:	00000000 	nop
    2290:	00000000 	nop
    2294:	00000000 	nop
    2298:	00000000 	nop
    229c:	00000000 	nop
    22a0:	00000000 	nop
    22a4:	00000000 	nop
    22a8:	00000000 	nop
    22ac:	00000000 	nop
    22b0:	00000000 	nop
    22b4:	00000000 	nop
    22b8:	00000000 	nop
    22bc:	00000000 	nop
    22c0:	00000000 	nop
    22c4:	00000000 	nop
    22c8:	00000000 	nop
    22cc:	00000000 	nop
    22d0:	00000000 	nop
    22d4:	00000000 	nop
    22d8:	00000000 	nop
    22dc:	00000000 	nop
    22e0:	00000000 	nop
    22e4:	00000000 	nop
    22e8:	00000000 	nop
    22ec:	00000000 	nop
    22f0:	00000000 	nop
    22f4:	00000000 	nop
    22f8:	00000000 	nop
    22fc:	00000000 	nop
    2300:	00000000 	nop
    2304:	00000000 	nop
    2308:	00000000 	nop
    230c:	00000000 	nop
    2310:	00000000 	nop
    2314:	00000000 	nop
    2318:	00000000 	nop
    231c:	00000000 	nop
    2320:	00000000 	nop
    2324:	00000000 	nop
    2328:	00000000 	nop
    232c:	00000000 	nop
    2330:	00000000 	nop
    2334:	00000000 	nop
    2338:	00000000 	nop
    233c:	00000000 	nop
    2340:	00000000 	nop
    2344:	00000000 	nop
    2348:	00000000 	nop
    234c:	00000000 	nop
    2350:	00000000 	nop
    2354:	00000000 	nop
    2358:	00000000 	nop
    235c:	00000000 	nop
    2360:	00000000 	nop
    2364:	00000000 	nop
    2368:	00000000 	nop
    236c:	00000000 	nop
    2370:	00000000 	nop
    2374:	00000000 	nop
    2378:	00000000 	nop
    237c:	00000000 	nop
    2380:	00000000 	nop
    2384:	00000000 	nop
    2388:	00000000 	nop
    238c:	00000000 	nop
    2390:	00000000 	nop
    2394:	00000000 	nop
    2398:	00000000 	nop
    239c:	00000000 	nop
    23a0:	00000000 	nop
    23a4:	00000000 	nop
    23a8:	00000000 	nop
    23ac:	00000000 	nop
    23b0:	00000000 	nop
    23b4:	00000000 	nop
    23b8:	00000000 	nop
    23bc:	00000000 	nop
    23c0:	00000000 	nop
    23c4:	00000000 	nop
    23c8:	00000000 	nop
    23cc:	00000000 	nop
    23d0:	00000000 	nop
    23d4:	00000000 	nop
    23d8:	00000000 	nop
    23dc:	00000000 	nop
    23e0:	00000000 	nop
    23e4:	00000000 	nop
    23e8:	00000000 	nop
    23ec:	00000000 	nop
    23f0:	00000000 	nop
    23f4:	00000000 	nop
    23f8:	00000000 	nop
    23fc:	00000000 	nop
    2400:	00000000 	nop
    2404:	00000000 	nop
    2408:	00000000 	nop
    240c:	00000000 	nop
    2410:	00000000 	nop
    2414:	00000000 	nop
    2418:	00000000 	nop
    241c:	00000000 	nop
    2420:	00000000 	nop
    2424:	00000000 	nop
    2428:	00000000 	nop
    242c:	00000000 	nop
    2430:	00000000 	nop
    2434:	00000000 	nop
    2438:	00000000 	nop
    243c:	00000000 	nop
    2440:	00000000 	nop
    2444:	00000000 	nop
    2448:	00000000 	nop
    244c:	00000000 	nop
    2450:	00000000 	nop
    2454:	00000000 	nop
    2458:	00000000 	nop
    245c:	00000000 	nop
    2460:	00000000 	nop
    2464:	00000000 	nop
    2468:	00000000 	nop
    246c:	00000000 	nop
    2470:	00000000 	nop
    2474:	00000000 	nop
    2478:	00000000 	nop
    247c:	00000000 	nop
    2480:	00000000 	nop
    2484:	00000000 	nop
    2488:	00000000 	nop
    248c:	00000000 	nop
    2490:	00000000 	nop
    2494:	00000000 	nop
    2498:	00000000 	nop
    249c:	00000000 	nop
    24a0:	00000000 	nop
    24a4:	00000000 	nop
    24a8:	00000000 	nop
    24ac:	00000000 	nop
    24b0:	00000000 	nop
    24b4:	00000000 	nop
    24b8:	00000000 	nop
    24bc:	00000000 	nop
    24c0:	00000000 	nop
    24c4:	00000000 	nop
    24c8:	00000000 	nop
    24cc:	00000000 	nop
    24d0:	00000000 	nop
    24d4:	00000000 	nop
    24d8:	00000000 	nop
    24dc:	00000000 	nop
    24e0:	00000000 	nop
    24e4:	00000000 	nop
    24e8:	00000000 	nop
    24ec:	00000000 	nop
    24f0:	00000000 	nop
    24f4:	00000000 	nop
    24f8:	00000000 	nop
    24fc:	00000000 	nop
    2500:	00000000 	nop
    2504:	00000000 	nop
    2508:	00000000 	nop
    250c:	00000000 	nop
    2510:	00000000 	nop
    2514:	00000000 	nop
    2518:	00000000 	nop
    251c:	00000000 	nop
    2520:	00000000 	nop
    2524:	00000000 	nop
    2528:	00000000 	nop
    252c:	00000000 	nop
    2530:	00000000 	nop
    2534:	00000000 	nop
    2538:	00000000 	nop
    253c:	00000000 	nop
    2540:	00000000 	nop
    2544:	00000000 	nop
    2548:	00000000 	nop
    254c:	00000000 	nop
    2550:	00000000 	nop
    2554:	00000000 	nop
    2558:	00000000 	nop
    255c:	00000000 	nop
    2560:	00000000 	nop
    2564:	00000000 	nop
    2568:	00000000 	nop
    256c:	00000000 	nop
    2570:	00000000 	nop
    2574:	00000000 	nop
    2578:	00000000 	nop
    257c:	00000000 	nop
    2580:	00000000 	nop
    2584:	00000000 	nop
    2588:	00000000 	nop
    258c:	00000000 	nop
    2590:	00000000 	nop
    2594:	00000000 	nop
    2598:	00000000 	nop
    259c:	00000000 	nop
    25a0:	00000000 	nop
    25a4:	00000000 	nop
    25a8:	00000000 	nop
    25ac:	00000000 	nop
    25b0:	00000000 	nop
    25b4:	00000000 	nop
    25b8:	00000000 	nop
    25bc:	00000000 	nop
    25c0:	00000000 	nop
    25c4:	00000000 	nop
    25c8:	00000000 	nop
    25cc:	00000000 	nop
    25d0:	00000000 	nop
    25d4:	00000000 	nop
    25d8:	00000000 	nop
    25dc:	00000000 	nop
    25e0:	00000000 	nop
    25e4:	00000000 	nop
    25e8:	00000000 	nop
    25ec:	00000000 	nop
    25f0:	00000000 	nop
    25f4:	00000000 	nop
    25f8:	00000000 	nop
    25fc:	00000000 	nop
    2600:	00000000 	nop
    2604:	00000000 	nop
    2608:	00000000 	nop
    260c:	00000000 	nop
    2610:	00000000 	nop
    2614:	00000000 	nop
    2618:	00000000 	nop
    261c:	00000000 	nop
    2620:	00000000 	nop
    2624:	00000000 	nop
    2628:	00000000 	nop
    262c:	00000000 	nop
    2630:	00000000 	nop
    2634:	00000000 	nop
    2638:	00000000 	nop
    263c:	00000000 	nop
    2640:	00000000 	nop
    2644:	00000000 	nop
    2648:	00000000 	nop
    264c:	00000000 	nop
    2650:	00000000 	nop
    2654:	00000000 	nop
    2658:	00000000 	nop
    265c:	00000000 	nop
    2660:	00000000 	nop
    2664:	00000000 	nop
    2668:	00000000 	nop
    266c:	00000000 	nop
    2670:	00000000 	nop
    2674:	00000000 	nop
    2678:	00000000 	nop
    267c:	00000000 	nop
    2680:	00000000 	nop
    2684:	00000000 	nop
    2688:	00000000 	nop
    268c:	00000000 	nop
    2690:	00000000 	nop
    2694:	00000000 	nop
    2698:	00000000 	nop
    269c:	00000000 	nop
    26a0:	00000000 	nop
    26a4:	00000000 	nop
    26a8:	00000000 	nop
    26ac:	00000000 	nop
    26b0:	00000000 	nop
    26b4:	00000000 	nop
    26b8:	00000000 	nop
    26bc:	00000000 	nop
    26c0:	00000000 	nop
    26c4:	00000000 	nop
    26c8:	00000000 	nop
    26cc:	00000000 	nop
    26d0:	00000000 	nop
    26d4:	00000000 	nop
    26d8:	00000000 	nop
    26dc:	00000000 	nop
    26e0:	00000000 	nop
    26e4:	00000000 	nop
    26e8:	00000000 	nop
    26ec:	00000000 	nop
    26f0:	00000000 	nop
    26f4:	00000000 	nop
    26f8:	00000000 	nop
    26fc:	00000000 	nop
    2700:	00000000 	nop
    2704:	00000000 	nop
    2708:	00000000 	nop
    270c:	00000000 	nop
    2710:	00000000 	nop
    2714:	00000000 	nop
    2718:	00000000 	nop
    271c:	00000000 	nop
    2720:	00000000 	nop
    2724:	00000000 	nop
    2728:	00000000 	nop
    272c:	00000000 	nop
    2730:	00000000 	nop
    2734:	00000000 	nop
    2738:	00000000 	nop
    273c:	00000000 	nop
    2740:	00000000 	nop
    2744:	00000000 	nop
    2748:	00000000 	nop
    274c:	00000000 	nop
    2750:	00000000 	nop
    2754:	00000000 	nop
    2758:	00000000 	nop
    275c:	00000000 	nop
    2760:	00000000 	nop
    2764:	00000000 	nop
    2768:	00000000 	nop
    276c:	00000000 	nop
    2770:	00000000 	nop
    2774:	00000000 	nop
    2778:	00000000 	nop
    277c:	00000000 	nop
    2780:	00000000 	nop
    2784:	00000000 	nop
    2788:	00000000 	nop
    278c:	00000000 	nop
    2790:	00000000 	nop
    2794:	00000000 	nop
    2798:	00000000 	nop
    279c:	00000000 	nop
    27a0:	00000000 	nop
    27a4:	00000000 	nop
    27a8:	00000000 	nop
    27ac:	00000000 	nop
    27b0:	00000000 	nop
    27b4:	00000000 	nop
    27b8:	00000000 	nop
    27bc:	00000000 	nop
    27c0:	00000000 	nop
    27c4:	00000000 	nop
    27c8:	00000000 	nop
    27cc:	00000000 	nop
    27d0:	00000000 	nop
    27d4:	00000000 	nop
    27d8:	00000000 	nop
    27dc:	00000000 	nop
    27e0:	00000000 	nop
    27e4:	00000000 	nop
    27e8:	00000000 	nop
    27ec:	00000000 	nop
    27f0:	00000000 	nop
    27f4:	00000000 	nop
    27f8:	00000000 	nop
    27fc:	00000000 	nop
    2800:	00000000 	nop
    2804:	00000000 	nop
    2808:	00000000 	nop
    280c:	00000000 	nop
    2810:	00000000 	nop
    2814:	00000000 	nop
    2818:	00000000 	nop
    281c:	00000000 	nop
    2820:	00000000 	nop
    2824:	00000000 	nop
    2828:	00000000 	nop
    282c:	00000000 	nop
    2830:	00000000 	nop
    2834:	00000000 	nop
    2838:	00000000 	nop
    283c:	00000000 	nop
    2840:	00000000 	nop
    2844:	00000000 	nop
    2848:	00000000 	nop
    284c:	00000000 	nop
    2850:	00000000 	nop
    2854:	00000000 	nop
    2858:	00000000 	nop
    285c:	00000000 	nop
    2860:	00000000 	nop
    2864:	00000000 	nop
    2868:	00000000 	nop
    286c:	00000000 	nop
    2870:	00000000 	nop
    2874:	00000000 	nop
    2878:	00000000 	nop
    287c:	00000000 	nop
    2880:	00000000 	nop
    2884:	00000000 	nop
    2888:	00000000 	nop
    288c:	00000000 	nop
    2890:	00000000 	nop
    2894:	00000000 	nop
    2898:	00000000 	nop
    289c:	00000000 	nop
    28a0:	00000000 	nop
    28a4:	00000000 	nop
    28a8:	00000000 	nop
    28ac:	00000000 	nop
    28b0:	00000000 	nop
    28b4:	00000000 	nop
    28b8:	00000000 	nop
    28bc:	00000000 	nop
    28c0:	00000000 	nop
    28c4:	00000000 	nop
    28c8:	00000000 	nop
    28cc:	00000000 	nop
    28d0:	00000000 	nop
    28d4:	00000000 	nop
    28d8:	00000000 	nop
    28dc:	00000000 	nop
    28e0:	00000000 	nop
    28e4:	00000000 	nop
    28e8:	00000000 	nop
    28ec:	00000000 	nop
    28f0:	00000000 	nop
    28f4:	00000000 	nop
    28f8:	00000000 	nop
    28fc:	00000000 	nop
    2900:	00000000 	nop
    2904:	00000000 	nop
    2908:	00000000 	nop
    290c:	00000000 	nop
    2910:	00000000 	nop
    2914:	00000000 	nop
    2918:	00000000 	nop
    291c:	00000000 	nop
    2920:	00000000 	nop
    2924:	00000000 	nop
    2928:	00000000 	nop
    292c:	00000000 	nop
    2930:	00000000 	nop
    2934:	00000000 	nop
    2938:	00000000 	nop
    293c:	00000000 	nop
    2940:	00000000 	nop
    2944:	00000000 	nop
    2948:	00000000 	nop
    294c:	00000000 	nop
    2950:	00000000 	nop
    2954:	00000000 	nop
    2958:	00000000 	nop
    295c:	00000000 	nop
    2960:	00000000 	nop
    2964:	00000000 	nop
    2968:	00000000 	nop
    296c:	00000000 	nop
    2970:	00000000 	nop
    2974:	00000000 	nop
    2978:	00000000 	nop
    297c:	00000000 	nop
    2980:	00000000 	nop
    2984:	00000000 	nop
    2988:	00000000 	nop
    298c:	00000000 	nop
    2990:	00000000 	nop
    2994:	00000000 	nop
    2998:	00000000 	nop
    299c:	00000000 	nop
    29a0:	00000000 	nop
    29a4:	00000000 	nop
    29a8:	00000000 	nop
    29ac:	00000000 	nop
    29b0:	00000000 	nop
    29b4:	00000000 	nop
    29b8:	00000000 	nop
    29bc:	00000000 	nop
    29c0:	00000000 	nop
    29c4:	00000000 	nop
    29c8:	00000000 	nop
    29cc:	00000000 	nop
    29d0:	00000000 	nop
    29d4:	00000000 	nop
    29d8:	00000000 	nop
    29dc:	00000000 	nop
    29e0:	00000000 	nop
    29e4:	00000000 	nop
    29e8:	00000000 	nop
    29ec:	00000000 	nop
    29f0:	00000000 	nop
    29f4:	00000000 	nop
    29f8:	00000000 	nop
    29fc:	00000000 	nop
    2a00:	00000000 	nop
    2a04:	00000000 	nop
    2a08:	00000000 	nop
    2a0c:	00000000 	nop
    2a10:	00000000 	nop
    2a14:	00000000 	nop
    2a18:	00000000 	nop
    2a1c:	00000000 	nop
    2a20:	00000000 	nop
    2a24:	00000000 	nop
    2a28:	00000000 	nop
    2a2c:	00000000 	nop
    2a30:	00000000 	nop
    2a34:	00000000 	nop
    2a38:	00000000 	nop
    2a3c:	00000000 	nop
    2a40:	00000000 	nop
    2a44:	00000000 	nop
    2a48:	00000000 	nop
    2a4c:	00000000 	nop
    2a50:	00000000 	nop
    2a54:	00000000 	nop
    2a58:	00000000 	nop
    2a5c:	00000000 	nop
    2a60:	00000000 	nop
    2a64:	00000000 	nop
    2a68:	00000000 	nop
    2a6c:	00000000 	nop
    2a70:	00000000 	nop
    2a74:	00000000 	nop
    2a78:	00000000 	nop
    2a7c:	00000000 	nop
    2a80:	00000000 	nop
    2a84:	00000000 	nop
    2a88:	00000000 	nop
    2a8c:	00000000 	nop
    2a90:	00000000 	nop
    2a94:	00000000 	nop
    2a98:	00000000 	nop
    2a9c:	00000000 	nop
    2aa0:	00000000 	nop
    2aa4:	00000000 	nop
    2aa8:	00000000 	nop
    2aac:	00000000 	nop
    2ab0:	00000000 	nop
    2ab4:	00000000 	nop
    2ab8:	00000000 	nop
    2abc:	00000000 	nop
    2ac0:	00000000 	nop
    2ac4:	00000000 	nop
    2ac8:	00000000 	nop
    2acc:	00000000 	nop
    2ad0:	00000000 	nop
    2ad4:	00000000 	nop
    2ad8:	00000000 	nop
    2adc:	00000000 	nop
    2ae0:	00000000 	nop
    2ae4:	00000000 	nop
    2ae8:	00000000 	nop
    2aec:	00000000 	nop
    2af0:	00000000 	nop
    2af4:	00000000 	nop
    2af8:	00000000 	nop
    2afc:	00000000 	nop
    2b00:	00000000 	nop
    2b04:	00000000 	nop
    2b08:	00000000 	nop
    2b0c:	00000000 	nop
    2b10:	00000000 	nop
    2b14:	00000000 	nop
    2b18:	00000000 	nop
    2b1c:	00000000 	nop
    2b20:	00000000 	nop
    2b24:	00000000 	nop
    2b28:	00000000 	nop
    2b2c:	00000000 	nop
    2b30:	00000000 	nop
    2b34:	00000000 	nop
    2b38:	00000000 	nop
    2b3c:	00000000 	nop
    2b40:	00000000 	nop
    2b44:	00000000 	nop
    2b48:	00000000 	nop
    2b4c:	00000000 	nop
    2b50:	00000000 	nop
    2b54:	00000000 	nop
    2b58:	00000000 	nop
    2b5c:	00000000 	nop
    2b60:	00000000 	nop
    2b64:	00000000 	nop
    2b68:	00000000 	nop
    2b6c:	00000000 	nop
    2b70:	00000000 	nop
    2b74:	00000000 	nop
    2b78:	00000000 	nop
    2b7c:	00000000 	nop
    2b80:	00000000 	nop
    2b84:	00000000 	nop
    2b88:	00000000 	nop
    2b8c:	00000000 	nop
    2b90:	00000000 	nop
    2b94:	00000000 	nop
    2b98:	00000000 	nop
    2b9c:	00000000 	nop
    2ba0:	00000000 	nop
    2ba4:	00000000 	nop
    2ba8:	00000000 	nop
    2bac:	00000000 	nop
    2bb0:	00000000 	nop
    2bb4:	00000000 	nop
    2bb8:	00000000 	nop
    2bbc:	00000000 	nop
    2bc0:	00000000 	nop
    2bc4:	00000000 	nop
    2bc8:	00000000 	nop
    2bcc:	00000000 	nop
    2bd0:	00000000 	nop
    2bd4:	00000000 	nop
    2bd8:	00000000 	nop
    2bdc:	00000000 	nop
    2be0:	00000000 	nop
    2be4:	00000000 	nop
    2be8:	00000000 	nop
    2bec:	00000000 	nop
    2bf0:	00000000 	nop
    2bf4:	00000000 	nop
    2bf8:	00000000 	nop
    2bfc:	00000000 	nop
    2c00:	00000000 	nop
    2c04:	00000000 	nop
    2c08:	00000000 	nop
    2c0c:	00000000 	nop
    2c10:	00000000 	nop
    2c14:	00000000 	nop
    2c18:	00000000 	nop
    2c1c:	00000000 	nop
    2c20:	00000000 	nop
    2c24:	00000000 	nop
    2c28:	00000000 	nop
    2c2c:	00000000 	nop
    2c30:	00000000 	nop
    2c34:	00000000 	nop
    2c38:	00000000 	nop
    2c3c:	00000000 	nop
    2c40:	00000000 	nop
    2c44:	00000000 	nop
    2c48:	00000000 	nop
    2c4c:	00000000 	nop
    2c50:	00000000 	nop
    2c54:	00000000 	nop
    2c58:	00000000 	nop
    2c5c:	00000000 	nop
    2c60:	00000000 	nop
    2c64:	00000000 	nop
    2c68:	00000000 	nop
    2c6c:	00000000 	nop
    2c70:	00000000 	nop
    2c74:	00000000 	nop
    2c78:	00000000 	nop
    2c7c:	00000000 	nop
    2c80:	00000000 	nop
    2c84:	00000000 	nop
    2c88:	00000000 	nop
    2c8c:	00000000 	nop
    2c90:	00000000 	nop
    2c94:	00000000 	nop
    2c98:	00000000 	nop
    2c9c:	00000000 	nop
    2ca0:	00000000 	nop
    2ca4:	00000000 	nop
    2ca8:	00000000 	nop
    2cac:	00000000 	nop
    2cb0:	00000000 	nop
    2cb4:	00000000 	nop
    2cb8:	00000000 	nop
    2cbc:	00000000 	nop
    2cc0:	00000000 	nop
    2cc4:	00000000 	nop
    2cc8:	00000000 	nop
    2ccc:	00000000 	nop
    2cd0:	00000000 	nop
    2cd4:	00000000 	nop
    2cd8:	00000000 	nop
    2cdc:	00000000 	nop
    2ce0:	00000000 	nop
    2ce4:	00000000 	nop
    2ce8:	00000000 	nop
    2cec:	00000000 	nop
    2cf0:	00000000 	nop
    2cf4:	00000000 	nop
    2cf8:	00000000 	nop
    2cfc:	00000000 	nop
    2d00:	00000000 	nop
    2d04:	00000000 	nop
    2d08:	00000000 	nop
    2d0c:	00000000 	nop
    2d10:	00000000 	nop
    2d14:	00000000 	nop
    2d18:	00000000 	nop
    2d1c:	00000000 	nop
    2d20:	00000000 	nop
    2d24:	00000000 	nop
    2d28:	00000000 	nop
    2d2c:	00000000 	nop
    2d30:	00000000 	nop
    2d34:	00000000 	nop
    2d38:	00000000 	nop
    2d3c:	00000000 	nop
    2d40:	00000000 	nop
    2d44:	00000000 	nop
    2d48:	00000000 	nop
    2d4c:	00000000 	nop
    2d50:	00000000 	nop
    2d54:	00000000 	nop
    2d58:	00000000 	nop
    2d5c:	00000000 	nop
    2d60:	00000000 	nop
    2d64:	00000000 	nop
    2d68:	00000000 	nop
    2d6c:	00000000 	nop
    2d70:	00000000 	nop
    2d74:	00000000 	nop
    2d78:	00000000 	nop
    2d7c:	00000000 	nop
    2d80:	00000000 	nop
    2d84:	00000000 	nop
    2d88:	00000000 	nop
    2d8c:	00000000 	nop
    2d90:	00000000 	nop
    2d94:	00000000 	nop
    2d98:	00000000 	nop
    2d9c:	00000000 	nop
    2da0:	00000000 	nop
    2da4:	00000000 	nop
    2da8:	00000000 	nop
    2dac:	00000000 	nop
    2db0:	00000000 	nop
    2db4:	00000000 	nop
    2db8:	00000000 	nop
    2dbc:	00000000 	nop
    2dc0:	00000000 	nop
    2dc4:	00000000 	nop
    2dc8:	00000000 	nop
    2dcc:	00000000 	nop
    2dd0:	00000000 	nop
    2dd4:	00000000 	nop
    2dd8:	00000000 	nop
    2ddc:	00000000 	nop
    2de0:	00000000 	nop
    2de4:	00000000 	nop
    2de8:	00000000 	nop
    2dec:	00000000 	nop
    2df0:	00000000 	nop
    2df4:	00000000 	nop
    2df8:	00000000 	nop
    2dfc:	00000000 	nop
    2e00:	00000000 	nop
    2e04:	00000000 	nop
    2e08:	00000000 	nop
    2e0c:	00000000 	nop
    2e10:	00000000 	nop
    2e14:	00000000 	nop
    2e18:	00000000 	nop
    2e1c:	00000000 	nop
    2e20:	00000000 	nop
    2e24:	00000000 	nop
    2e28:	00000000 	nop
    2e2c:	00000000 	nop
    2e30:	00000000 	nop
    2e34:	00000000 	nop
    2e38:	00000000 	nop
    2e3c:	00000000 	nop
    2e40:	00000000 	nop
    2e44:	00000000 	nop
    2e48:	00000000 	nop
    2e4c:	00000000 	nop
    2e50:	00000000 	nop
    2e54:	00000000 	nop
    2e58:	00000000 	nop
    2e5c:	00000000 	nop
    2e60:	00000000 	nop
    2e64:	00000000 	nop
    2e68:	00000000 	nop
    2e6c:	00000000 	nop
    2e70:	00000000 	nop
    2e74:	00000000 	nop
    2e78:	00000000 	nop
    2e7c:	00000000 	nop
    2e80:	00000000 	nop
    2e84:	00000000 	nop
    2e88:	00000000 	nop
    2e8c:	00000000 	nop
    2e90:	00000000 	nop
    2e94:	00000000 	nop
    2e98:	00000000 	nop
    2e9c:	00000000 	nop
    2ea0:	00000000 	nop
    2ea4:	00000000 	nop
    2ea8:	00000000 	nop
    2eac:	00000000 	nop
    2eb0:	00000000 	nop
    2eb4:	00000000 	nop
    2eb8:	00000000 	nop
    2ebc:	00000000 	nop
    2ec0:	00000000 	nop
    2ec4:	00000000 	nop
    2ec8:	00000000 	nop
    2ecc:	00000000 	nop
    2ed0:	00000000 	nop
    2ed4:	00000000 	nop
    2ed8:	00000000 	nop
    2edc:	00000000 	nop
    2ee0:	00000000 	nop
    2ee4:	00000000 	nop
    2ee8:	00000000 	nop
    2eec:	00000000 	nop
    2ef0:	00000000 	nop
    2ef4:	00000000 	nop
    2ef8:	00000000 	nop
    2efc:	00000000 	nop
    2f00:	00000000 	nop
    2f04:	00000000 	nop
    2f08:	00000000 	nop
    2f0c:	00000000 	nop
    2f10:	00000000 	nop
    2f14:	00000000 	nop
    2f18:	00000000 	nop
    2f1c:	00000000 	nop
    2f20:	00000000 	nop
    2f24:	00000000 	nop
    2f28:	00000000 	nop
    2f2c:	00000000 	nop
    2f30:	00000000 	nop
    2f34:	00000000 	nop
    2f38:	00000000 	nop
    2f3c:	00000000 	nop
    2f40:	00000000 	nop
    2f44:	00000000 	nop
    2f48:	00000000 	nop
    2f4c:	00000000 	nop
    2f50:	00000000 	nop
    2f54:	00000000 	nop
    2f58:	00000000 	nop
    2f5c:	00000000 	nop
    2f60:	00000000 	nop
    2f64:	00000000 	nop
    2f68:	00000000 	nop
    2f6c:	00000000 	nop
    2f70:	00000000 	nop
    2f74:	00000000 	nop
    2f78:	00000000 	nop
    2f7c:	00000000 	nop
    2f80:	00000000 	nop
    2f84:	00000000 	nop
    2f88:	00000000 	nop
    2f8c:	00000000 	nop
    2f90:	00000000 	nop
    2f94:	00000000 	nop
    2f98:	00000000 	nop
    2f9c:	00000000 	nop
    2fa0:	00000000 	nop
    2fa4:	00000000 	nop
    2fa8:	00000000 	nop
    2fac:	00000000 	nop
    2fb0:	00000000 	nop
    2fb4:	00000000 	nop
    2fb8:	00000000 	nop
    2fbc:	00000000 	nop
    2fc0:	00000000 	nop
    2fc4:	00000000 	nop
    2fc8:	00000000 	nop
    2fcc:	00000000 	nop
    2fd0:	00000000 	nop
    2fd4:	00000000 	nop
    2fd8:	00000000 	nop
    2fdc:	00000000 	nop
    2fe0:	00000000 	nop
    2fe4:	00000000 	nop
    2fe8:	00000000 	nop
    2fec:	00000000 	nop
    2ff0:	00000000 	nop
    2ff4:	00000000 	nop
    2ff8:	00000000 	nop
    2ffc:	00000000 	nop
    3000:	00000000 	nop
    3004:	00000000 	nop
    3008:	00000000 	nop
    300c:	00000000 	nop
    3010:	00000000 	nop
    3014:	00000000 	nop
    3018:	00000000 	nop
    301c:	00000000 	nop
    3020:	00000000 	nop
    3024:	00000000 	nop
    3028:	00000000 	nop
    302c:	00000000 	nop
    3030:	00000000 	nop
    3034:	00000000 	nop
    3038:	00000000 	nop
    303c:	00000000 	nop
    3040:	00000000 	nop
    3044:	00000000 	nop
    3048:	00000000 	nop
    304c:	00000000 	nop
    3050:	00000000 	nop
    3054:	00000000 	nop
    3058:	00000000 	nop
    305c:	00000000 	nop
    3060:	00000000 	nop
    3064:	00000000 	nop
    3068:	00000000 	nop
    306c:	00000000 	nop
    3070:	00000000 	nop
    3074:	00000000 	nop
    3078:	00000000 	nop
    307c:	00000000 	nop
    3080:	00000000 	nop
    3084:	00000000 	nop
    3088:	00000000 	nop
    308c:	00000000 	nop
    3090:	00000000 	nop
    3094:	00000000 	nop
    3098:	00000000 	nop
    309c:	00000000 	nop
    30a0:	00000000 	nop
    30a4:	00000000 	nop
    30a8:	00000000 	nop
    30ac:	00000000 	nop
    30b0:	00000000 	nop
    30b4:	00000000 	nop
    30b8:	00000000 	nop
    30bc:	00000000 	nop
    30c0:	00000000 	nop
    30c4:	00000000 	nop
    30c8:	00000000 	nop
    30cc:	00000000 	nop
    30d0:	00000000 	nop
    30d4:	00000000 	nop
    30d8:	00000000 	nop
    30dc:	00000000 	nop
    30e0:	00000000 	nop
    30e4:	00000000 	nop
    30e8:	00000000 	nop
    30ec:	00000000 	nop
    30f0:	00000000 	nop
    30f4:	00000000 	nop
    30f8:	00000000 	nop
    30fc:	00000000 	nop
    3100:	00000000 	nop
    3104:	00000000 	nop
    3108:	00000000 	nop
    310c:	00000000 	nop
    3110:	00000000 	nop
    3114:	00000000 	nop
    3118:	00000000 	nop
    311c:	00000000 	nop
    3120:	00000000 	nop
    3124:	00000000 	nop
    3128:	00000000 	nop
    312c:	00000000 	nop
    3130:	00000000 	nop
    3134:	00000000 	nop
    3138:	00000000 	nop
    313c:	00000000 	nop
    3140:	00000000 	nop
    3144:	00000000 	nop
    3148:	00000000 	nop
    314c:	00000000 	nop
    3150:	00000000 	nop
    3154:	00000000 	nop
    3158:	00000000 	nop
    315c:	00000000 	nop
    3160:	00000000 	nop
    3164:	00000000 	nop
    3168:	00000000 	nop
    316c:	00000000 	nop
    3170:	00000000 	nop
    3174:	00000000 	nop
    3178:	00000000 	nop
    317c:	00000000 	nop
    3180:	00000000 	nop
    3184:	00000000 	nop
    3188:	00000000 	nop
    318c:	00000000 	nop
    3190:	00000000 	nop
    3194:	00000000 	nop
    3198:	00000000 	nop
    319c:	00000000 	nop
    31a0:	00000000 	nop
    31a4:	00000000 	nop
    31a8:	00000000 	nop
    31ac:	00000000 	nop
    31b0:	00000000 	nop
    31b4:	00000000 	nop
    31b8:	00000000 	nop
    31bc:	00000000 	nop
    31c0:	00000000 	nop
    31c4:	00000000 	nop
    31c8:	00000000 	nop
    31cc:	00000000 	nop
    31d0:	00000000 	nop
    31d4:	00000000 	nop
    31d8:	00000000 	nop
    31dc:	00000000 	nop
    31e0:	00000000 	nop
    31e4:	00000000 	nop
    31e8:	00000000 	nop
    31ec:	00000000 	nop
    31f0:	00000000 	nop
    31f4:	00000000 	nop
    31f8:	00000000 	nop
    31fc:	00000000 	nop
    3200:	00000000 	nop
    3204:	00000000 	nop
    3208:	00000000 	nop
    320c:	00000000 	nop
    3210:	00000000 	nop
    3214:	00000000 	nop
    3218:	00000000 	nop
    321c:	00000000 	nop
    3220:	00000000 	nop
    3224:	00000000 	nop
    3228:	00000000 	nop
    322c:	00000000 	nop
    3230:	00000000 	nop
    3234:	00000000 	nop
    3238:	00000000 	nop
    323c:	00000000 	nop
    3240:	00000000 	nop
    3244:	00000000 	nop
    3248:	00000000 	nop
    324c:	00000000 	nop
    3250:	00000000 	nop
    3254:	00000000 	nop
    3258:	00000000 	nop
    325c:	00000000 	nop
    3260:	00000000 	nop
    3264:	00000000 	nop
    3268:	00000000 	nop
    326c:	00000000 	nop
    3270:	00000000 	nop
    3274:	00000000 	nop
    3278:	00000000 	nop
    327c:	00000000 	nop
    3280:	00000000 	nop
    3284:	00000000 	nop
    3288:	00000000 	nop
    328c:	00000000 	nop
    3290:	00000000 	nop
    3294:	00000000 	nop
    3298:	00000000 	nop
    329c:	00000000 	nop
    32a0:	00000000 	nop
    32a4:	00000000 	nop
    32a8:	00000000 	nop
    32ac:	00000000 	nop

セクション .backup の逆アセンブル:

00000000 <.backup>:
   0:	00000003 	sra	zero,zero,0x0
